
========================================================================

** ELF Header Information

    File Name: D:\Ubuntu\github\SWM341_Alg_SFC_MDK\out\SWM341_SFC.axf

    Machine class: ELFCLASS32 (32-bit)
    Data encoding: ELFDATA2LSB (Little endian)
    Header version: EV_CURRENT (Current version)
    Operating System ABI: none
    ABI Version: 0
    File Type: ET_EXEC (Executable) (2)
    Machine: EM_ARM (ARM)

    Image Entry point: Not specified
    Flags: EF_ARM_ABI_FLOAT_SOFT (0x05000200)

    ARM ELF revision: 5 (ABI version 2)

    Conforms to Soft float procedure-call standard

    Built with
    Component: ARM Compiler 6.16 Tool: armlink [5dfeaa00]

    Header size: 52 bytes (0x34)
    Program header entry size: 32 bytes (0x20)
    Section header entry size: 40 bytes (0x28)

    Program header entries: 2
    Section header entries: 16

    Program header offset: 37536 (0x000092a0)
    Section header offset: 37600 (0x000092e0)

    Section header string table index: 15

========================================================================

** Program header #0 (PT_LOAD) [PF_X + PF_W + PF_R + PF_ARM_SB + PF_ARM_PI]
    Size : 3660 bytes
    Virtual address: 0x00000000 (Alignment 4)


====================================

** Program header #1 (PT_LOAD) [PF_X + PF_R + PF_ARM_PI]
    Size : 4256 bytes
    Virtual address: 0x00000e4c (Alignment 4)


========================================================================

** Section #1 'PrgCode' (SHT_PROGBITS) [SHF_ALLOC + SHF_EXECINSTR]
    Size   : 3648 bytes (alignment 4)
    Address: 0x00000000

    $t.0
    Init
        0x00000000:    b5b0        ..      PUSH     {r4,r5,r7,lr}
        0x00000002:    b084        ..      SUB      sp,sp,#0x10
        0x00000004:    2a03        .*      CMP      r2,#3
        0x00000006:    d053        S.      BEQ      0xb0 ; Init + 176
        0x00000008:    2a02        .*      CMP      r2,#2
        0x0000000a:    d079        y.      BEQ      0x100 ; Init + 256
        0x0000000c:    2a01        .*      CMP      r2,#1
        0x0000000e:    f04080a4    @...    BNE.W    0x15a ; Init + 346
        0x00000012:    f2407020    @. p    MOVW     r0,#0x720
        0x00000016:    f3ef8210    ....    MRS      r2,PRIMASK
        0x0000001a:    b672        r.      CPSID    i
        0x0000001c:    f2c40000    ....    MOVT     r0,#0x4000
        0x00000020:    2155        U!      MOVS     r1,#0x55
        0x00000022:    6001        .`      STR      r1,[r0,#0]
        0x00000024:    f04f31ff    O..1    MOV      r1,#0xffffffff
        0x00000028:    6041        A`      STR      r1,[r0,#4]
        0x0000002a:    6081        .`      STR      r1,[r0,#8]
        0x0000002c:    f3bf8f4f    ..O.    DSB      
        0x00000030:    f3bf8f6f    ..o.    ISB      
        0x00000034:    bf00        ..      NOP      
        0x00000036:    2100        .!      MOVS     r1,#0
        0x00000038:    bf00        ..      NOP      
        0x0000003a:    6041        A`      STR      r1,[r0,#4]
        0x0000003c:    6081        .`      STR      r1,[r0,#8]
        0x0000003e:    6001        .`      STR      r1,[r0,#0]
        0x00000040:    f000fd58    ..X.    BL       SystemInit ; 0xaf4
        0x00000044:    2430        0$      MOVS     r4,#0x30
        0x00000046:    f2c4040a    ....    MOVT     r4,#0x400a
        0x0000004a:    4620         F      MOV      r0,r4
        0x0000004c:    2105        .!      MOVS     r1,#5
        0x0000004e:    2201        ."      MOVS     r2,#1
        0x00000050:    2300        .#      MOVS     r3,#0
        0x00000052:    2501        .%      MOVS     r5,#1
        0x00000054:    f000f8f8    ....    BL       PORT_Init ; 0x248
        0x00000058:    4620         F      MOV      r0,r4
        0x0000005a:    2106        .!      MOVS     r1,#6
        0x0000005c:    2201        ."      MOVS     r2,#1
        0x0000005e:    2300        .#      MOVS     r3,#0
        0x00000060:    f000f8f2    ....    BL       PORT_Init ; 0x248
        0x00000064:    4620         F      MOV      r0,r4
        0x00000066:    2108        .!      MOVS     r1,#8
        0x00000068:    2202        ."      MOVS     r2,#2
        0x0000006a:    2301        .#      MOVS     r3,#1
        0x0000006c:    f000f8ec    ....    BL       PORT_Init ; 0x248
        0x00000070:    4620         F      MOV      r0,r4
        0x00000072:    2107        .!      MOVS     r1,#7
        0x00000074:    2203        ."      MOVS     r2,#3
        0x00000076:    2301        .#      MOVS     r3,#1
        0x00000078:    f000f8e6    ....    BL       PORT_Init ; 0x248
        0x0000007c:    4620         F      MOV      r0,r4
        0x0000007e:    2103        .!      MOVS     r1,#3
        0x00000080:    2202        ."      MOVS     r2,#2
        0x00000082:    2301        .#      MOVS     r3,#1
        0x00000084:    f000f8e0    ....    BL       PORT_Init ; 0x248
        0x00000088:    4620         F      MOV      r0,r4
        0x0000008a:    2104        .!      MOVS     r1,#4
        0x0000008c:    2202        ."      MOVS     r2,#2
        0x0000008e:    2301        .#      MOVS     r3,#1
        0x00000090:    f000f8da    ....    BL       PORT_Init ; 0x248
        0x00000094:    f64e3001    N..0    MOV      r0,#0xeb01
        0x00000098:    f2c32002    ...     MOVT     r0,#0x3202
        0x0000009c:    9002        ..      STR      r0,[sp,#8]
        0x0000009e:    a802        ..      ADD      r0,sp,#8
        0x000000a0:    f88d500c    ...P    STRB     r5,[sp,#0xc]
        0x000000a4:    f000fa3c    ..<.    BL       SFC_Init ; 0x520
        0x000000a8:    2001        .       MOVS     r0,#1
        0x000000aa:    f000fa9b    ....    BL       SFC_QuadSwitch ; 0x5e4
        0x000000ae:    e054        T.      B        0x15a ; Init + 346
        0x000000b0:    2430        0$      MOVS     r4,#0x30
        0x000000b2:    f2c4040a    ....    MOVT     r4,#0x400a
        0x000000b6:    4620         F      MOV      r0,r4
        0x000000b8:    2105        .!      MOVS     r1,#5
        0x000000ba:    2201        ."      MOVS     r2,#1
        0x000000bc:    2300        .#      MOVS     r3,#0
        0x000000be:    f000f8c3    ....    BL       PORT_Init ; 0x248
        0x000000c2:    4620         F      MOV      r0,r4
        0x000000c4:    2106        .!      MOVS     r1,#6
        0x000000c6:    2201        ."      MOVS     r2,#1
        0x000000c8:    2300        .#      MOVS     r3,#0
        0x000000ca:    f000f8bd    ....    BL       PORT_Init ; 0x248
        0x000000ce:    4620         F      MOV      r0,r4
        0x000000d0:    2108        .!      MOVS     r1,#8
        0x000000d2:    2202        ."      MOVS     r2,#2
        0x000000d4:    2301        .#      MOVS     r3,#1
        0x000000d6:    f000f8b7    ....    BL       PORT_Init ; 0x248
        0x000000da:    4620         F      MOV      r0,r4
        0x000000dc:    2107        .!      MOVS     r1,#7
        0x000000de:    2203        ."      MOVS     r2,#3
        0x000000e0:    2301        .#      MOVS     r3,#1
        0x000000e2:    f000f8b1    ....    BL       PORT_Init ; 0x248
        0x000000e6:    4620         F      MOV      r0,r4
        0x000000e8:    2103        .!      MOVS     r1,#3
        0x000000ea:    2202        ."      MOVS     r2,#2
        0x000000ec:    2301        .#      MOVS     r3,#1
        0x000000ee:    f000f8ab    ....    BL       PORT_Init ; 0x248
        0x000000f2:    4620         F      MOV      r0,r4
        0x000000f4:    2104        .!      MOVS     r1,#4
        0x000000f6:    2202        ."      MOVS     r2,#2
        0x000000f8:    2301        .#      MOVS     r3,#1
        0x000000fa:    f000f8a5    ....    BL       PORT_Init ; 0x248
        0x000000fe:    e02c        ,.      B        0x15a ; Init + 346
        0x00000100:    f6410400    A...    MOVW     r4,#0x1800
        0x00000104:    f2c40404    ....    MOVT     r4,#0x4004
        0x00000108:    4620         F      MOV      r0,r4
        0x0000010a:    2106        .!      MOVS     r1,#6
        0x0000010c:    f000f974    ..t.    BL       GPIO_SetBit ; 0x3f8
        0x00000110:    4620         F      MOV      r0,r4
        0x00000112:    2105        .!      MOVS     r1,#5
        0x00000114:    f000f970    ..p.    BL       GPIO_SetBit ; 0x3f8
        0x00000118:    2500        .%      MOVS     r5,#0
        0x0000011a:    4620         F      MOV      r0,r4
        0x0000011c:    2105        .!      MOVS     r1,#5
        0x0000011e:    2201        ."      MOVS     r2,#1
        0x00000120:    2300        .#      MOVS     r3,#0
        0x00000122:    9500        ..      STR      r5,[sp,#0]
        0x00000124:    9501        ..      STR      r5,[sp,#4]
        0x00000126:    f000f8b5    ....    BL       GPIO_Init ; 0x294
        0x0000012a:    4620         F      MOV      r0,r4
        0x0000012c:    2106        .!      MOVS     r1,#6
        0x0000012e:    2201        ."      MOVS     r2,#1
        0x00000130:    2300        .#      MOVS     r3,#0
        0x00000132:    9500        ..      STR      r5,[sp,#0]
        0x00000134:    9501        ..      STR      r5,[sp,#4]
        0x00000136:    f000f8ad    ....    BL       GPIO_Init ; 0x294
        0x0000013a:    4620         F      MOV      r0,r4
        0x0000013c:    2108        .!      MOVS     r1,#8
        0x0000013e:    2201        ."      MOVS     r2,#1
        0x00000140:    2300        .#      MOVS     r3,#0
        0x00000142:    9500        ..      STR      r5,[sp,#0]
        0x00000144:    9501        ..      STR      r5,[sp,#4]
        0x00000146:    f000f8a5    ....    BL       GPIO_Init ; 0x294
        0x0000014a:    4620         F      MOV      r0,r4
        0x0000014c:    2107        .!      MOVS     r1,#7
        0x0000014e:    2200        ."      MOVS     r2,#0
        0x00000150:    2300        .#      MOVS     r3,#0
        0x00000152:    9500        ..      STR      r5,[sp,#0]
        0x00000154:    9501        ..      STR      r5,[sp,#4]
        0x00000156:    f000f89d    ....    BL       GPIO_Init ; 0x294
        0x0000015a:    2000        .       MOVS     r0,#0
        0x0000015c:    b004        ..      ADD      sp,sp,#0x10
        0x0000015e:    bdb0        ..      POP      {r4,r5,r7,pc}
    UnInit
        0x00000160:    2000        .       MOVS     r0,#0
        0x00000162:    4770        pG      BX       lr
    EraseSector
        0x00000164:    b510        ..      PUSH     {r4,lr}
        0x00000166:    f1004010    ...@    ADD      r0,r0,#0x90000000
        0x0000016a:    f1b07f80    ....    CMP      r0,#0x1000000
        0x0000016e:    bf84        ..      ITT      HI
        0x00000170:    2001        .       MOVHI    r0,#1
        0x00000172:    bd10        ..      POPHI    {r4,pc}
        0x00000174:    21d8        .!      MOVS     r1,#0xd8
        0x00000176:    2200        ."      MOVS     r2,#0
        0x00000178:    2400        .$      MOVS     r4,#0
        0x0000017a:    f000fa6b    ..k.    BL       SFC_EraseEx ; 0x654
        0x0000017e:    f000faa3    ....    BL       SFC_FlashBusy ; 0x6c8
        0x00000182:    b128        (.      CBZ      r0,0x190 ; EraseSector + 44
        0x00000184:    bf00        ..      NOP      
        0x00000186:    f000fa9f    ....    BL       SFC_FlashBusy ; 0x6c8
        0x0000018a:    2800        .(      CMP      r0,#0
        0x0000018c:    d1fa        ..      BNE      0x184 ; EraseSector + 32
        0x0000018e:    2400        .$      MOVS     r4,#0
        0x00000190:    4620         F      MOV      r0,r4
        0x00000192:    bd10        ..      POP      {r4,pc}
    ProgramPage
        0x00000194:    e92d41f0    -..A    PUSH     {r4-r8,lr}
        0x00000198:    f1004610    ...F    ADD      r6,r0,#0x90000000
        0x0000019c:    f1b67f80    ....    CMP      r6,#0x1000000
        0x000001a0:    bf84        ..      ITT      HI
        0x000001a2:    2001        .       MOVHI    r0,#1
        0x000001a4:    e8bd81f0    ....    POPHI    {r4-r8,pc}
        0x000001a8:    460c        .F      MOV      r4,r1
        0x000001aa:    2900        .)      CMP      r1,#0
        0x000001ac:    bf04        ..      ITT      EQ
        0x000001ae:    2000        .       MOVEQ    r0,#0
        0x000001b0:    e8bd81f0    ....    POPEQ    {r4-r8,pc}
        0x000001b4:    4690        .F      MOV      r8,r2
        0x000001b6:    2700        .'      MOVS     r7,#0
        0x000001b8:    4625        %F      MOV      r5,r4
        0x000001ba:    bf00        ..      NOP      
        0x000001bc:    462a        *F      MOV      r2,r5
        0x000001be:    f5b57f80    ....    CMP      r5,#0x100
        0x000001c2:    bf28        (.      IT       CS
        0x000001c4:    f44f7280    O..r    MOVCS    r2,#0x100
        0x000001c8:    19f0        ..      ADDS     r0,r6,r7
        0x000001ca:    eb080107    ....    ADD      r1,r8,r7
        0x000001ce:    0892        ..      LSRS     r2,r2,#2
        0x000001d0:    f000faa8    ....    BL       SFC_GPIOWrite ; 0x724
        0x000001d4:    f5077780    ...w    ADD      r7,r7,#0x100
        0x000001d8:    42a7        .B      CMP      r7,r4
        0x000001da:    f5a57580    ...u    SUB      r5,r5,#0x100
        0x000001de:    d3ed        ..      BCC      0x1bc ; ProgramPage + 40
        0x000001e0:    2000        .       MOVS     r0,#0
        0x000001e2:    e8bd81f0    ....    POP      {r4-r8,pc}
        0x000001e6:    bf00        ..      NOP      
    Verify
        0x000001e8:    f1004310    ...C    ADD      r3,r0,#0x90000000
        0x000001ec:    f1b37f80    ....    CMP      r3,#0x1000000
        0x000001f0:    bf88        ..      IT       HI
        0x000001f2:    4770        pG      BXHI     lr
        0x000001f4:    b5b0        ..      PUSH     {r4,r5,r7,lr}
        0x000001f6:    2900        .)      CMP      r1,#0
        0x000001f8:    460c        .F      MOV      r4,r1
        0x000001fa:    bf18        ..      IT       NE
        0x000001fc:    2401        .$      MOVNE    r4,#1
        0x000001fe:    d01b        ..      BEQ      0x238 ; Verify + 80
        0x00000200:    f8d0c000    ....    LDR      r12,[r0,#0]
        0x00000204:    6813        .h      LDR      r3,[r2,#0]
        0x00000206:    459c        .E      CMP      r12,r3
        0x00000208:    4684        .F      MOV      r12,r0
        0x0000020a:    d117        ..      BNE      0x23c ; Verify + 84
        0x0000020c:    f04f0c00    O...    MOV      r12,#0
        0x00000210:    f10c0e04    ....    ADD      lr,r12,#4
        0x00000214:    458e        .E      CMP      lr,r1
        0x00000216:    f04f0400    O...    MOV      r4,#0
        0x0000021a:    bf38        8.      IT       CC
        0x0000021c:    2401        .$      MOVCC    r4,#1
        0x0000021e:    d20c        ..      BCS      0x23a ; Verify + 82
        0x00000220:    eb00030c    ....    ADD      r3,r0,r12
        0x00000224:    685d        ]h      LDR      r5,[r3,#4]
        0x00000226:    eb02030c    ....    ADD      r3,r2,r12
        0x0000022a:    685b        [h      LDR      r3,[r3,#4]
        0x0000022c:    46f4        .F      MOV      r12,lr
        0x0000022e:    429d        .B      CMP      r5,r3
        0x00000230:    d0ee        ..      BEQ      0x210 ; Verify + 40
        0x00000232:    eb000c0e    ....    ADD      r12,r0,lr
        0x00000236:    e001        ..      B        0x23c ; Verify + 84
        0x00000238:    e000        ..      B        0x23c ; Verify + 84
        0x0000023a:    4484        .D      ADD      r12,r12,r0
        0x0000023c:    2c00        .,      CMP      r4,#0
        0x0000023e:    bf08        ..      IT       EQ
        0x00000240:    eb010c00    ....    ADDEQ    r12,r1,r0
        0x00000244:    4660        `F      MOV      r0,r12
        0x00000246:    bdb0        ..      POP      {r4,r5,r7,pc}
    PORT_Init
        0x00000248:    b570        p.      PUSH     {r4-r6,lr}
        0x0000024a:    f06f0c1f    o...    MVN      r12,#0x1f
        0x0000024e:    eb0c0c81    ....    ADD      r12,r12,r1,LSL #2
        0x00000252:    4604        .F      MOV      r4,r0
        0x00000254:    2908        .)      CMP      r1,#8
        0x00000256:    bf38        8.      IT       CC
        0x00000258:    ea4f0c81    O...    LSLCC    r12,r1,#2
        0x0000025c:    f04f0e0f    O...    MOV      lr,#0xf
        0x00000260:    bf28        (.      IT       CS
        0x00000262:    3404        .4      ADDCS    r4,#4
        0x00000264:    6826        &h      LDR      r6,[r4,#0]
        0x00000266:    fa0ef50c    ....    LSL      r5,lr,r12
        0x0000026a:    43ae        .C      BICS     r6,r6,r5
        0x0000026c:    6026        &`      STR      r6,[r4,#0]
        0x0000026e:    6826        &h      LDR      r6,[r4,#0]
        0x00000270:    fa02f20c    ....    LSL      r2,r2,r12
        0x00000274:    4332        2C      ORRS     r2,r2,r6
        0x00000276:    6022        "`      STR      r2,[r4,#0]
        0x00000278:    2201        ."      MOVS     r2,#1
        0x0000027a:    fa02f101    ....    LSL      r1,r2,r1
        0x0000027e:    2b00        .+      CMP      r3,#0
        0x00000280:    f8d02300    ...#    LDR      r2,[r0,#0x300]
        0x00000284:    bf0c        ..      ITE      EQ
        0x00000286:    ea220101    "...    BICEQ    r1,r2,r1
        0x0000028a:    4311        .C      ORRNE    r1,r1,r2
        0x0000028c:    f8c01300    ....    STR      r1,[r0,#0x300]
        0x00000290:    bd70        p.      POP      {r4-r6,pc}
        0x00000292:    0000        ..      MOVS     r0,r0
    GPIO_Init
        0x00000294:    e92d45f0    -..E    PUSH     {r4-r8,r10,lr}
        0x00000298:    b081        ..      SUB      sp,sp,#4
        0x0000029a:    4607        .F      MOV      r7,r0
        0x0000029c:    f24070ff    @..p    MOV      r0,#0x7ff
        0x000002a0:    f2c40004    ....    MOVT     r0,#0x4004
        0x000002a4:    2400        .$      MOVS     r4,#0
        0x000002a6:    4698        .F      MOV      r8,r3
        0x000002a8:    4692        .F      MOV      r10,r2
        0x000002aa:    4287        .B      CMP      r7,r0
        0x000002ac:    460d        .F      MOV      r5,r1
        0x000002ae:    f2c4040a    ....    MOVT     r4,#0x400a
        0x000002b2:    dd1a        ..      BLE      0x2ea ; GPIO_Init + 86
        0x000002b4:    f24170ff    A..p    MOV      r0,#0x17ff
        0x000002b8:    f2c40004    ....    MOVT     r0,#0x4004
        0x000002bc:    4287        .B      CMP      r7,r0
        0x000002be:    dc2a        *.      BGT      0x316 ; GPIO_Init + 130
        0x000002c0:    f6400000    @...    MOVW     r0,#0x800
        0x000002c4:    f2c40004    ....    MOVT     r0,#0x4004
        0x000002c8:    4287        .B      CMP      r7,r0
        0x000002ca:    d039        9.      BEQ      0x340 ; GPIO_Init + 172
        0x000002cc:    f2410000    A...    MOVW     r0,#0x1000
        0x000002d0:    f2c40004    ....    MOVT     r0,#0x4004
        0x000002d4:    4287        .B      CMP      r7,r0
        0x000002d6:    d156        V.      BNE      0x386 ; GPIO_Init + 242
        0x000002d8:    2008        .       MOVS     r0,#8
        0x000002da:    f2c40000    ....    MOVT     r0,#0x4000
        0x000002de:    6801        .h      LDR      r1,[r0,#0]
        0x000002e0:    3420         4      ADDS     r4,r4,#0x20
        0x000002e2:    f0410104    A...    ORR      r1,r1,#4
        0x000002e6:    6001        .`      STR      r1,[r0,#0]
        0x000002e8:    e04d        M.      B        0x386 ; GPIO_Init + 242
        0x000002ea:    f1b72f40    ..@/    CMP      r7,#0x40004000
        0x000002ee:    d030        0.      BEQ      0x352 ; GPIO_Init + 190
        0x000002f0:    f6440000    D...    MOVW     r0,#0x4800
        0x000002f4:    f2c40000    ....    MOVT     r0,#0x4000
        0x000002f8:    4287        .B      CMP      r7,r0
        0x000002fa:    d03c        <.      BEQ      0x376 ; GPIO_Init + 226
        0x000002fc:    2000        .       MOVS     r0,#0
        0x000002fe:    f2c40004    ....    MOVT     r0,#0x4004
        0x00000302:    4287        .B      CMP      r7,r0
        0x00000304:    d13f        ?.      BNE      0x386 ; GPIO_Init + 242
        0x00000306:    2008        .       MOVS     r0,#8
        0x00000308:    f2c40000    ....    MOVT     r0,#0x4000
        0x0000030c:    6801        .h      LDR      r1,[r0,#0]
        0x0000030e:    f0410101    A...    ORR      r1,r1,#1
        0x00000312:    6001        .`      STR      r1,[r0,#0]
        0x00000314:    e037        7.      B        0x386 ; GPIO_Init + 242
        0x00000316:    f6410000    A...    MOVW     r0,#0x1800
        0x0000031a:    f2c40004    ....    MOVT     r0,#0x4004
        0x0000031e:    4287        .B      CMP      r7,r0
        0x00000320:    d020         .      BEQ      0x364 ; GPIO_Init + 208
        0x00000322:    f2410000    A...    MOVW     r0,#0x1000
        0x00000326:    f2c4000a    ....    MOVT     r0,#0x400a
        0x0000032a:    4287        .B      CMP      r7,r0
        0x0000032c:    d12b        +.      BNE      0x386 ; GPIO_Init + 242
        0x0000032e:    2008        .       MOVS     r0,#8
        0x00000330:    f2c40000    ....    MOVT     r0,#0x4000
        0x00000334:    6841        Ah      LDR      r1,[r0,#4]
        0x00000336:    3440        @4      ADDS     r4,r4,#0x40
        0x00000338:    f0410101    A...    ORR      r1,r1,#1
        0x0000033c:    6041        A`      STR      r1,[r0,#4]
        0x0000033e:    e022        ".      B        0x386 ; GPIO_Init + 242
        0x00000340:    2008        .       MOVS     r0,#8
        0x00000342:    f2c40000    ....    MOVT     r0,#0x4000
        0x00000346:    6801        .h      LDR      r1,[r0,#0]
        0x00000348:    3410        .4      ADDS     r4,r4,#0x10
        0x0000034a:    f0410102    A...    ORR      r1,r1,#2
        0x0000034e:    6001        .`      STR      r1,[r0,#0]
        0x00000350:    e019        ..      B        0x386 ; GPIO_Init + 242
        0x00000352:    2008        .       MOVS     r0,#8
        0x00000354:    f2c40000    ....    MOVT     r0,#0x4000
        0x00000358:    6801        .h      LDR      r1,[r0,#0]
        0x0000035a:    3480        .4      ADDS     r4,r4,#0x80
        0x0000035c:    f0410110    A...    ORR      r1,r1,#0x10
        0x00000360:    6001        .`      STR      r1,[r0,#0]
        0x00000362:    e010        ..      B        0x386 ; GPIO_Init + 242
        0x00000364:    2008        .       MOVS     r0,#8
        0x00000366:    f2c40000    ....    MOVT     r0,#0x4000
        0x0000036a:    6801        .h      LDR      r1,[r0,#0]
        0x0000036c:    3430        04      ADDS     r4,r4,#0x30
        0x0000036e:    f0410108    A...    ORR      r1,r1,#8
        0x00000372:    6001        .`      STR      r1,[r0,#0]
        0x00000374:    e007        ..      B        0x386 ; GPIO_Init + 242
        0x00000376:    2008        .       MOVS     r0,#8
        0x00000378:    f2c40000    ....    MOVT     r0,#0x4000
        0x0000037c:    6801        .h      LDR      r1,[r0,#0]
        0x0000037e:    3490        .4      ADDS     r4,r4,#0x90
        0x00000380:    f0410120    A. .    ORR      r1,r1,#0x20
        0x00000384:    6001        .`      STR      r1,[r0,#0]
        0x00000386:    4620         F      MOV      r0,r4
        0x00000388:    4629        )F      MOV      r1,r5
        0x0000038a:    2200        ."      MOVS     r2,#0
        0x0000038c:    2301        .#      MOVS     r3,#1
        0x0000038e:    2601        .&      MOVS     r6,#1
        0x00000390:    f7ffff5a    ..Z.    BL       PORT_Init ; 0x248
        0x00000394:    fa06f005    ....    LSL      r0,r6,r5
        0x00000398:    6879        yh      LDR      r1,[r7,#4]
        0x0000039a:    f1ba0f01    ....    CMP      r10,#1
        0x0000039e:    bf14        ..      ITE      NE
        0x000003a0:    ea210000    !...    BICNE    r0,r1,r0
        0x000003a4:    4308        .C      ORREQ    r0,r0,r1
        0x000003a6:    6078        x`      STR      r0,[r7,#4]
        0x000003a8:    2101        .!      MOVS     r1,#1
        0x000003aa:    9808        ..      LDR      r0,[sp,#0x20]
        0x000003ac:    40a9        .@      LSLS     r1,r1,r5
        0x000003ae:    f8d42100    ...!    LDR      r2,[r4,#0x100]
        0x000003b2:    f1b80f01    ....    CMP      r8,#1
        0x000003b6:    bf14        ..      ITE      NE
        0x000003b8:    ea220101    "...    BICNE    r1,r2,r1
        0x000003bc:    4311        .C      ORREQ    r1,r1,r2
        0x000003be:    2201        ."      MOVS     r2,#1
        0x000003c0:    f8c41100    ....    STR      r1,[r4,#0x100]
        0x000003c4:    2801        .(      CMP      r0,#1
        0x000003c6:    fa02f005    ....    LSL      r0,r2,r5
        0x000003ca:    f8d42200    ..."    LDR      r2,[r4,#0x200]
        0x000003ce:    bf14        ..      ITE      NE
        0x000003d0:    ea220000    "...    BICNE    r0,r2,r0
        0x000003d4:    4310        .C      ORREQ    r0,r0,r2
        0x000003d6:    9909        ..      LDR      r1,[sp,#0x24]
        0x000003d8:    f8c40200    ....    STR      r0,[r4,#0x200]
        0x000003dc:    2001        .       MOVS     r0,#1
        0x000003de:    40a8        .@      LSLS     r0,r0,r5
        0x000003e0:    2901        .)      CMP      r1,#1
        0x000003e2:    f8d41400    ....    LDR      r1,[r4,#0x400]
        0x000003e6:    bf0c        ..      ITE      EQ
        0x000003e8:    4308        .C      ORREQ    r0,r0,r1
        0x000003ea:    ea210000    !...    BICNE    r0,r1,r0
        0x000003ee:    f8c40400    ....    STR      r0,[r4,#0x400]
        0x000003f2:    b001        ..      ADD      sp,sp,#4
        0x000003f4:    e8bd85f0    ....    POP      {r4-r8,r10,pc}
    GPIO_SetBit
        0x000003f8:    2201        ."      MOVS     r2,#1
        0x000003fa:    6803        .h      LDR      r3,[r0,#0]
        0x000003fc:    fa02f101    ....    LSL      r1,r2,r1
        0x00000400:    4319        .C      ORRS     r1,r1,r3
        0x00000402:    6001        .`      STR      r1,[r0,#0]
        0x00000404:    4770        pG      BX       lr
        0x00000406:    bf00        ..      NOP      
    GPIO_ClrBit
        0x00000408:    2201        ."      MOVS     r2,#1
        0x0000040a:    6803        .h      LDR      r3,[r0,#0]
        0x0000040c:    fa02f101    ....    LSL      r1,r2,r1
        0x00000410:    ea230101    #...    BIC      r1,r3,r1
        0x00000414:    6001        .`      STR      r1,[r0,#0]
        0x00000416:    4770        pG      BX       lr
    GPIO_InvBit
        0x00000418:    2201        ."      MOVS     r2,#1
        0x0000041a:    6803        .h      LDR      r3,[r0,#0]
        0x0000041c:    fa02f101    ....    LSL      r1,r2,r1
        0x00000420:    4059        Y@      EORS     r1,r1,r3
        0x00000422:    6001        .`      STR      r1,[r0,#0]
        0x00000424:    4770        pG      BX       lr
        0x00000426:    bf00        ..      NOP      
    GPIO_GetBit
        0x00000428:    6b00        .k      LDR      r0,[r0,#0x30]
        0x0000042a:    40c8        .@      LSRS     r0,r0,r1
        0x0000042c:    f0000001    ....    AND      r0,r0,#1
        0x00000430:    4770        pG      BX       lr
        0x00000432:    bf00        ..      NOP      
    GPIO_SetBits
        0x00000434:    f1c20210    ....    RSB      r2,r2,#0x10
        0x00000438:    f64f73ff    O..s    MOV      r3,#0xffff
        0x0000043c:    fa23f202    #...    LSR      r2,r3,r2
        0x00000440:    6803        .h      LDR      r3,[r0,#0]
        0x00000442:    fa02f101    ....    LSL      r1,r2,r1
        0x00000446:    4319        .C      ORRS     r1,r1,r3
        0x00000448:    6001        .`      STR      r1,[r0,#0]
        0x0000044a:    4770        pG      BX       lr
    GPIO_ClrBits
        0x0000044c:    f1c20210    ....    RSB      r2,r2,#0x10
        0x00000450:    f64f73ff    O..s    MOV      r3,#0xffff
        0x00000454:    fa23f202    #...    LSR      r2,r3,r2
        0x00000458:    6803        .h      LDR      r3,[r0,#0]
        0x0000045a:    fa02f101    ....    LSL      r1,r2,r1
        0x0000045e:    ea230101    #...    BIC      r1,r3,r1
        0x00000462:    6001        .`      STR      r1,[r0,#0]
        0x00000464:    4770        pG      BX       lr
        0x00000466:    bf00        ..      NOP      
    GPIO_InvBits
        0x00000468:    f1c20210    ....    RSB      r2,r2,#0x10
        0x0000046c:    f64f73ff    O..s    MOV      r3,#0xffff
        0x00000470:    fa23f202    #...    LSR      r2,r3,r2
        0x00000474:    6803        .h      LDR      r3,[r0,#0]
        0x00000476:    fa02f101    ....    LSL      r1,r2,r1
        0x0000047a:    4059        Y@      EORS     r1,r1,r3
        0x0000047c:    6001        .`      STR      r1,[r0,#0]
        0x0000047e:    4770        pG      BX       lr
    GPIO_GetBits
        0x00000480:    6b00        .k      LDR      r0,[r0,#0x30]
        0x00000482:    f1c20210    ....    RSB      r2,r2,#0x10
        0x00000486:    f64f73ff    O..s    MOV      r3,#0xffff
        0x0000048a:    fa23f202    #...    LSR      r2,r3,r2
        0x0000048e:    40c8        .@      LSRS     r0,r0,r1
        0x00000490:    4010        .@      ANDS     r0,r0,r2
        0x00000492:    4770        pG      BX       lr
    GPIO_AtomicSetBit
        0x00000494:    eb000081    ....    ADD      r0,r0,r1,LSL #2
        0x00000498:    2101        .!      MOVS     r1,#1
        0x0000049a:    6401        .d      STR      r1,[r0,#0x40]
        0x0000049c:    4770        pG      BX       lr
        0x0000049e:    bf00        ..      NOP      
    GPIO_AtomicClrBit
        0x000004a0:    eb000081    ....    ADD      r0,r0,r1,LSL #2
        0x000004a4:    2100        .!      MOVS     r1,#0
        0x000004a6:    6401        .d      STR      r1,[r0,#0x40]
        0x000004a8:    4770        pG      BX       lr
        0x000004aa:    bf00        ..      NOP      
    GPIO_AtomicInvBit
        0x000004ac:    eb000081    ....    ADD      r0,r0,r1,LSL #2
        0x000004b0:    6c01        .l      LDR      r1,[r0,#0x40]
        0x000004b2:    f1c10101    ....    RSB      r1,r1,#1
        0x000004b6:    6401        .d      STR      r1,[r0,#0x40]
        0x000004b8:    4770        pG      BX       lr
        0x000004ba:    bf00        ..      NOP      
    GPIO_AtomicSetBits
        0x000004bc:    f1c20210    ....    RSB      r2,r2,#0x10
        0x000004c0:    f64f73ff    O..s    MOV      r3,#0xffff
        0x000004c4:    fa23f202    #...    LSR      r2,r3,r2
        0x000004c8:    f3ef8310    ....    MRS      r3,PRIMASK
        0x000004cc:    b672        r.      CPSID    i
        0x000004ce:    6803        .h      LDR      r3,[r0,#0]
        0x000004d0:    fa02f101    ....    LSL      r1,r2,r1
        0x000004d4:    4319        .C      ORRS     r1,r1,r3
        0x000004d6:    6001        .`      STR      r1,[r0,#0]
        0x000004d8:    b662        b.      CPSIE    i
        0x000004da:    4770        pG      BX       lr
    GPIO_AtomicClrBits
        0x000004dc:    f1c20210    ....    RSB      r2,r2,#0x10
        0x000004e0:    f64f73ff    O..s    MOV      r3,#0xffff
        0x000004e4:    fa23f202    #...    LSR      r2,r3,r2
        0x000004e8:    f3ef8310    ....    MRS      r3,PRIMASK
        0x000004ec:    b672        r.      CPSID    i
        0x000004ee:    6803        .h      LDR      r3,[r0,#0]
        0x000004f0:    fa02f101    ....    LSL      r1,r2,r1
        0x000004f4:    ea230101    #...    BIC      r1,r3,r1
        0x000004f8:    6001        .`      STR      r1,[r0,#0]
        0x000004fa:    b662        b.      CPSIE    i
        0x000004fc:    4770        pG      BX       lr
        0x000004fe:    bf00        ..      NOP      
    GPIO_AtomicInvBits
        0x00000500:    f1c20210    ....    RSB      r2,r2,#0x10
        0x00000504:    f64f73ff    O..s    MOV      r3,#0xffff
        0x00000508:    fa23f202    #...    LSR      r2,r3,r2
        0x0000050c:    f3ef8310    ....    MRS      r3,PRIMASK
        0x00000510:    b672        r.      CPSID    i
        0x00000512:    6803        .h      LDR      r3,[r0,#0]
        0x00000514:    fa02f101    ....    LSL      r1,r2,r1
        0x00000518:    4059        Y@      EORS     r1,r1,r3
        0x0000051a:    6001        .`      STR      r1,[r0,#0]
        0x0000051c:    b662        b.      CPSIE    i
        0x0000051e:    4770        pG      BX       lr
    SFC_Init
        0x00000520:    b5b0        ..      PUSH     {r4,r5,r7,lr}
        0x00000522:    210c        .!      MOVS     r1,#0xc
        0x00000524:    f2c40100    ....    MOVT     r1,#0x4000
        0x00000528:    680a        .h      LDR      r2,[r1,#0]
        0x0000052a:    f4425200    B..R    ORR      r2,r2,#0x2000
        0x0000052e:    600a        .`      STR      r2,[r1,#0]
        0x00000530:    f64a0100    J...    MOVW     r1,#0xa800
        0x00000534:    f2c40104    ....    MOVT     r1,#0x4004
        0x00000538:    2207        ."      MOVS     r2,#7
        0x0000053a:    f8c123f4    ...#    STR      r2,[r1,#0x3f4]
        0x0000053e:    680a        .h      LDR      r2,[r1,#0]
        0x00000540:    f422626c    ".lb    BIC      r2,r2,#0xec0
        0x00000544:    600a        .`      STR      r2,[r1,#0]
        0x00000546:    7882        .x      LDRB     r2,[r0,#2]
        0x00000548:    7803        .x      LDRB     r3,[r0,#0]
        0x0000054a:    0294        ..      LSLS     r4,r2,#10
        0x0000054c:    f890c001    ....    LDRB     r12,[r0,#1]
        0x00000550:    f890e003    ....    LDRB     lr,[r0,#3]
        0x00000554:    ea441383    D...    ORR      r3,r4,r3,LSL #6
        0x00000558:    7905        .y      LDRB     r5,[r0,#4]
        0x0000055a:    680c        .h      LDR      r4,[r1,#0]
        0x0000055c:    2a02        .*      CMP      r2,#2
        0x0000055e:    ea430304    C...    ORR      r3,r3,r4
        0x00000562:    ea432345    C.E#    ORR      r3,r3,r5,LSL #9
        0x00000566:    f64f74ff    O..t    MOV      r4,#0xffff
        0x0000056a:    600b        .`      STR      r3,[r1,#0]
        0x0000056c:    680b        .h      LDR      r3,[r1,#0]
        0x0000056e:    f0430320    C. .    ORR      r3,r3,#0x20
        0x00000572:    600b        .`      STR      r3,[r1,#0]
        0x00000574:    6a0b        .j      LDR      r3,[r1,#0x20]
        0x00000576:    f02323ff    #..#    BIC      r3,r3,#0xff00ff00
        0x0000057a:    620b        .b      STR      r3,[r1,#0x20]
        0x0000057c:    6a0b        .j      LDR      r3,[r1,#0x20]
        0x0000057e:    ea43630c    C..c    ORR      r3,r3,r12,LSL #24
        0x00000582:    f64c4ccd    L..L    MOV      r12,#0xcccd
        0x00000586:    ea43230e    C..#    ORR      r3,r3,lr,LSL #8
        0x0000058a:    f6cc4ccc    ...L    MOVT     r12,#0xcccc
        0x0000058e:    620b        .b      STR      r3,[r1,#0x20]
        0x00000590:    680b        .h      LDR      r3,[r1,#0]
        0x00000592:    f0230320    #. .    BIC      r3,r3,#0x20
        0x00000596:    600b        .`      STR      r3,[r1,#0]
        0x00000598:    684b        Kh      LDR      r3,[r1,#4]
        0x0000059a:    ea230304    #...    BIC      r3,r3,r4
        0x0000059e:    604b        K`      STR      r3,[r1,#4]
        0x000005a0:    f2400304    @...    MOVW     r3,#4
        0x000005a4:    f2c00300    ....    MOVT     r3,#0
        0x000005a8:    f8593003    Y..0    LDR      r3,[r9,r3]
        0x000005ac:    684c        Lh      LDR      r4,[r1,#4]
        0x000005ae:    fba3300c    ...0    UMULL    r3,r0,r3,r12
        0x000005b2:    ea4400d0    D...    ORR      r0,r4,r0,LSR #3
        0x000005b6:    f440407f    @..@    ORR      r0,r0,#0xff00
        0x000005ba:    6048        H`      STR      r0,[r1,#4]
        0x000005bc:    bf1c        ..      ITT      NE
        0x000005be:    2d01        .-      CMPNE    r5,#1
        0x000005c0:    bdb0        ..      POPNE    {r4,r5,r7,pc}
        0x000005c2:    f000f807    ....    BL       SFC_QuadState ; 0x5d4
        0x000005c6:    2800        .(      CMP      r0,#0
        0x000005c8:    bf04        ..      ITT      EQ
        0x000005ca:    2001        .       MOVEQ    r0,#1
        0x000005cc:    f000f80a    ....    BLEQ     SFC_QuadSwitch ; 0x5e4
        0x000005d0:    bdb0        ..      POP      {r4,r5,r7,pc}
        0x000005d2:    bf00        ..      NOP      
    SFC_QuadState
        0x000005d4:    b580        ..      PUSH     {r7,lr}
        0x000005d6:    2035        5       MOVS     r0,#0x35
        0x000005d8:    f000f944    ..D.    BL       SFC_ReadStatusReg ; 0x864
        0x000005dc:    f3c00040    ..@.    UBFX     r0,r0,#1,#1
        0x000005e0:    bd80        ..      POP      {r7,pc}
        0x000005e2:    bf00        ..      NOP      
    SFC_QuadSwitch
        0x000005e4:    b5b0        ..      PUSH     {r4,r5,r7,lr}
        0x000005e6:    4604        .F      MOV      r4,r0
        0x000005e8:    2800        .(      CMP      r0,#0
        0x000005ea:    bf18        ..      IT       NE
        0x000005ec:    2401        .$      MOVNE    r4,#1
        0x000005ee:    2035        5       MOVS     r0,#0x35
        0x000005f0:    f000f938    ..8.    BL       SFC_ReadStatusReg ; 0x864
        0x000005f4:    4605        .F      MOV      r5,r0
        0x000005f6:    2005        .       MOVS     r0,#5
        0x000005f8:    f000f934    ..4.    BL       SFC_ReadStatusReg ; 0x864
        0x000005fc:    ea402044    @.D     ORR      r0,r0,r4,LSL #9
        0x00000600:    f00501fd    ....    AND      r1,r5,#0xfd
        0x00000604:    ea402101    @..!    ORR      r1,r0,r1,LSL #8
        0x00000608:    2001        .       MOVS     r0,#1
        0x0000060a:    f000f949    ..I.    BL       SFC_WriteStatusReg ; 0x8a0
        0x0000060e:    bdb0        ..      POP      {r4,r5,r7,pc}
    SFC_ReadJEDEC
        0x00000610:    f64a0000    J...    MOVW     r0,#0xa800
        0x00000614:    f2c40004    ....    MOVT     r0,#0x4004
        0x00000618:    6801        .h      LDR      r1,[r0,#0]
        0x0000061a:    f021010f    !...    BIC      r1,r1,#0xf
        0x0000061e:    6001        .`      STR      r1,[r0,#0]
        0x00000620:    6801        .h      LDR      r1,[r0,#0]
        0x00000622:    f0410122    A.".    ORR      r1,r1,#0x22
        0x00000626:    6001        .`      STR      r1,[r0,#0]
        0x00000628:    219f        .!      MOVS     r1,#0x9f
        0x0000062a:    6241        Ab      STR      r1,[r0,#0x24]
        0x0000062c:    2101        .!      MOVS     r1,#1
        0x0000062e:    6141        Aa      STR      r1,[r0,#0x14]
        0x00000630:    f3bf8f4f    ..O.    DSB      
        0x00000634:    f3bf8f6f    ..o.    ISB      
        0x00000638:    6941        Ai      LDR      r1,[r0,#0x14]
        0x0000063a:    b119        ..      CBZ      r1,0x644 ; SFC_ReadJEDEC + 52
        0x0000063c:    bf00        ..      NOP      
        0x0000063e:    6941        Ai      LDR      r1,[r0,#0x14]
        0x00000640:    2900        .)      CMP      r1,#0
        0x00000642:    d1fb        ..      BNE      0x63c ; SFC_ReadJEDEC + 44
        0x00000644:    69c0        .i      LDR      r0,[r0,#0x1c]
        0x00000646:    4770        pG      BX       lr
    SFC_Erase
        0x00000648:    b580        ..      PUSH     {r7,lr}
        0x0000064a:    460a        .F      MOV      r2,r1
        0x0000064c:    2120         !      MOVS     r1,#0x20
        0x0000064e:    f000f801    ....    BL       SFC_EraseEx ; 0x654
        0x00000652:    bd80        ..      POP      {r7,pc}
    SFC_EraseEx
        0x00000654:    b580        ..      PUSH     {r7,lr}
        0x00000656:    f64a0e00    J...    MOVW     lr,#0xa800
        0x0000065a:    f2c40e04    ....    MOVT     lr,#0x4004
        0x0000065e:    f8ce0018    ....    STR      r0,[lr,#0x18]
        0x00000662:    f8dec000    ....    LDR      r12,[lr,#0]
        0x00000666:    3001        .0      ADDS     r0,#1
        0x00000668:    f02c030f    ,...    BIC      r3,r12,#0xf
        0x0000066c:    f8ce3000    ...0    STR      r3,[lr,#0]
        0x00000670:    f2410027    A.'.    MOV      r0,#0x1027
        0x00000674:    f8de3000    ...0    LDR      r3,[lr,#0]
        0x00000678:    bf08        ..      IT       EQ
        0x0000067a:    f2410025    A.%.    MOVEQ    r0,#0x1025
        0x0000067e:    4318        .C      ORRS     r0,r0,r3
        0x00000680:    f8ce0000    ....    STR      r0,[lr,#0]
        0x00000684:    2001        .       MOVS     r0,#1
        0x00000686:    f8ce1024    ..$.    STR      r1,[lr,#0x24]
        0x0000068a:    f8ce0014    ....    STR      r0,[lr,#0x14]
        0x0000068e:    f3bf8f4f    ..O.    DSB      
        0x00000692:    f3bf8f6f    ..o.    ISB      
        0x00000696:    bf00        ..      NOP      
        0x00000698:    f8de0014    ....    LDR      r0,[lr,#0x14]
        0x0000069c:    b108        ..      CBZ      r0,0x6a2 ; SFC_EraseEx + 78
        0x0000069e:    bf00        ..      NOP      
        0x000006a0:    e7fa        ..      B        0x698 ; SFC_EraseEx + 68
        0x000006a2:    f8de0000    ....    LDR      r0,[lr,#0]
        0x000006a6:    f4205080     ..P    BIC      r0,r0,#0x1000
        0x000006aa:    f8ce0000    ....    STR      r0,[lr,#0]
        0x000006ae:    b152        R.      CBZ      r2,0x6c6 ; SFC_EraseEx + 114
        0x000006b0:    f000f80a    ....    BL       SFC_FlashBusy ; 0x6c8
        0x000006b4:    2800        .(      CMP      r0,#0
        0x000006b6:    bf08        ..      IT       EQ
        0x000006b8:    bd80        ..      POPEQ    {r7,pc}
        0x000006ba:    bf00        ..      NOP      
        0x000006bc:    bf00        ..      NOP      
        0x000006be:    f000f803    ....    BL       SFC_FlashBusy ; 0x6c8
        0x000006c2:    2800        .(      CMP      r0,#0
        0x000006c4:    d1fa        ..      BNE      0x6bc ; SFC_EraseEx + 104
        0x000006c6:    bd80        ..      POP      {r7,pc}
    SFC_FlashBusy
        0x000006c8:    b580        ..      PUSH     {r7,lr}
        0x000006ca:    2005        .       MOVS     r0,#5
        0x000006cc:    f000f8ca    ....    BL       SFC_ReadStatusReg ; 0x864
        0x000006d0:    f0000001    ....    AND      r0,r0,#1
        0x000006d4:    bd80        ..      POP      {r7,pc}
        0x000006d6:    bf00        ..      NOP      
    SFC_Write
        0x000006d8:    b580        ..      PUSH     {r7,lr}
        0x000006da:    f64a0e00    J...    MOVW     lr,#0xa800
        0x000006de:    f2c40e04    ....    MOVT     lr,#0x4004
        0x000006e2:    f8dec000    ....    LDR      r12,[lr,#0]
        0x000006e6:    f44c5c80    L..\    ORR      r12,r12,#0x1000
        0x000006ea:    f8cec000    ....    STR      r12,[lr,#0]
        0x000006ee:    b14a        J.      CBZ      r2,0x704 ; SFC_Write + 44
        0x000006f0:    f10040e0    ...@    ADD      r0,r0,#0x70000000
        0x000006f4:    3904        .9      SUBS     r1,#4
        0x000006f6:    bf00        ..      NOP      
        0x000006f8:    f8513f04    Q..?    LDR      r3,[r1,#4]!
        0x000006fc:    3a01        .:      SUBS     r2,#1
        0x000006fe:    f8403b04    @..;    STR      r3,[r0],#4
        0x00000702:    d1f9        ..      BNE      0x6f8 ; SFC_Write + 32
        0x00000704:    f8de0008    ....    LDR      r0,[lr,#8]
        0x00000708:    07c0        ..      LSLS     r0,r0,#31
        0x0000070a:    d004        ..      BEQ      0x716 ; SFC_Write + 62
        0x0000070c:    bf00        ..      NOP      
        0x0000070e:    f8de0008    ....    LDR      r0,[lr,#8]
        0x00000712:    07c0        ..      LSLS     r0,r0,#31
        0x00000714:    d1fa        ..      BNE      0x70c ; SFC_Write + 52
        0x00000716:    f8de0000    ....    LDR      r0,[lr,#0]
        0x0000071a:    f4205080     ..P    BIC      r0,r0,#0x1000
        0x0000071e:    f8ce0000    ....    STR      r0,[lr,#0]
        0x00000722:    bd80        ..      POP      {r7,pc}
    SFC_GPIOWrite
        0x00000724:    b5f0        ..      PUSH     {r4-r7,lr}
        0x00000726:    b081        ..      SUB      sp,sp,#4
        0x00000728:    f6410400    A...    MOVW     r4,#0x1800
        0x0000072c:    f2c40404    ....    MOVT     r4,#0x4004
        0x00000730:    460d        .F      MOV      r5,r1
        0x00000732:    4607        .F      MOV      r7,r0
        0x00000734:    4620         F      MOV      r0,r4
        0x00000736:    2106        .!      MOVS     r1,#6
        0x00000738:    4616        .F      MOV      r6,r2
        0x0000073a:    f7fffeb1    ....    BL       GPIO_AtomicClrBit ; 0x4a0
        0x0000073e:    bf00        ..      NOP      
        0x00000740:    bf00        ..      NOP      
        0x00000742:    bf00        ..      NOP      
        0x00000744:    2006        .       MOVS     r0,#6
        0x00000746:    bf00        ..      NOP      
        0x00000748:    f000f84e    ..N.    BL       IOSPI_ReadWrite ; 0x7e8
        0x0000074c:    bf00        ..      NOP      
        0x0000074e:    bf00        ..      NOP      
        0x00000750:    bf00        ..      NOP      
        0x00000752:    4620         F      MOV      r0,r4
        0x00000754:    2106        .!      MOVS     r1,#6
        0x00000756:    bf00        ..      NOP      
        0x00000758:    f7fffe9c    ....    BL       GPIO_AtomicSetBit ; 0x494
        0x0000075c:    4620         F      MOV      r0,r4
        0x0000075e:    2106        .!      MOVS     r1,#6
        0x00000760:    f7fffe9e    ....    BL       GPIO_AtomicClrBit ; 0x4a0
        0x00000764:    bf00        ..      NOP      
        0x00000766:    bf00        ..      NOP      
        0x00000768:    bf00        ..      NOP      
        0x0000076a:    2002        .       MOVS     r0,#2
        0x0000076c:    bf00        ..      NOP      
        0x0000076e:    f000f83b    ..;.    BL       IOSPI_ReadWrite ; 0x7e8
        0x00000772:    f3c74007    ...@    UBFX     r0,r7,#16,#8
        0x00000776:    f000f837    ..7.    BL       IOSPI_ReadWrite ; 0x7e8
        0x0000077a:    f3c72007    ...     UBFX     r0,r7,#8,#8
        0x0000077e:    f000f833    ..3.    BL       IOSPI_ReadWrite ; 0x7e8
        0x00000782:    b2f8        ..      UXTB     r0,r7
        0x00000784:    f000f830    ..0.    BL       IOSPI_ReadWrite ; 0x7e8
        0x00000788:    2000        .       MOVS     r0,#0
        0x0000078a:    ebb00f86    ....    CMP      r0,r6,LSL #2
        0x0000078e:    d007        ..      BEQ      0x7a0 ; SFC_GPIOWrite + 124
        0x00000790:    00b6        ..      LSLS     r6,r6,#2
        0x00000792:    3d01        .=      SUBS     r5,#1
        0x00000794:    f8150f01    ....    LDRB     r0,[r5,#1]!
        0x00000798:    f000f826    ..&.    BL       IOSPI_ReadWrite ; 0x7e8
        0x0000079c:    3e01        .>      SUBS     r6,#1
        0x0000079e:    d1f9        ..      BNE      0x794 ; SFC_GPIOWrite + 112
        0x000007a0:    bf00        ..      NOP      
        0x000007a2:    bf00        ..      NOP      
        0x000007a4:    bf00        ..      NOP      
        0x000007a6:    4620         F      MOV      r0,r4
        0x000007a8:    2106        .!      MOVS     r1,#6
        0x000007aa:    bf00        ..      NOP      
        0x000007ac:    f7fffe72    ..r.    BL       GPIO_AtomicSetBit ; 0x494
        0x000007b0:    4620         F      MOV      r0,r4
        0x000007b2:    2106        .!      MOVS     r1,#6
        0x000007b4:    f7fffe74    ..t.    BL       GPIO_AtomicClrBit ; 0x4a0
        0x000007b8:    bf00        ..      NOP      
        0x000007ba:    bf00        ..      NOP      
        0x000007bc:    bf00        ..      NOP      
        0x000007be:    2005        .       MOVS     r0,#5
        0x000007c0:    bf00        ..      NOP      
        0x000007c2:    f000f811    ....    BL       IOSPI_ReadWrite ; 0x7e8
        0x000007c6:    20ff        .       MOVS     r0,#0xff
        0x000007c8:    f000f80e    ....    BL       IOSPI_ReadWrite ; 0x7e8
        0x000007cc:    bf00        ..      NOP      
        0x000007ce:    bf00        ..      NOP      
        0x000007d0:    4605        .F      MOV      r5,r0
        0x000007d2:    bf00        ..      NOP      
        0x000007d4:    4620         F      MOV      r0,r4
        0x000007d6:    2106        .!      MOVS     r1,#6
        0x000007d8:    bf00        ..      NOP      
        0x000007da:    f7fffe5b    ..[.    BL       GPIO_AtomicSetBit ; 0x494
        0x000007de:    07e8        ..      LSLS     r0,r5,#31
        0x000007e0:    d1e6        ..      BNE      0x7b0 ; SFC_GPIOWrite + 140
        0x000007e2:    b001        ..      ADD      sp,sp,#4
        0x000007e4:    bdf0        ..      POP      {r4-r7,pc}
        0x000007e6:    bf00        ..      NOP      
    IOSPI_ReadWrite
        0x000007e8:    b5f0        ..      PUSH     {r4-r7,lr}
        0x000007ea:    b081        ..      SUB      sp,sp,#4
        0x000007ec:    f6410500    A...    MOVW     r5,#0x1800
        0x000007f0:    4604        .F      MOV      r4,r0
        0x000007f2:    2700        .'      MOVS     r7,#0
        0x000007f4:    f2c40504    ....    MOVT     r5,#0x4004
        0x000007f8:    2607        .&      MOVS     r6,#7
        0x000007fa:    e011        ..      B        0x820 ; IOSPI_ReadWrite + 56
        0x000007fc:    f7fffe50    ..P.    BL       GPIO_AtomicClrBit ; 0x4a0
        0x00000800:    bf00        ..      NOP      
        0x00000802:    4628        (F      MOV      r0,r5
        0x00000804:    2105        .!      MOVS     r1,#5
        0x00000806:    bf00        ..      NOP      
        0x00000808:    f7fffe44    ..D.    BL       GPIO_AtomicSetBit ; 0x494
        0x0000080c:    4628        (F      MOV      r0,r5
        0x0000080e:    2107        .!      MOVS     r1,#7
        0x00000810:    b2ff        ..      UXTB     r7,r7
        0x00000812:    f7fffe09    ....    BL       GPIO_GetBit ; 0x428
        0x00000816:    ea400747    @.G.    ORR      r7,r0,r7,LSL #1
        0x0000081a:    3e01        .>      SUBS     r6,#1
        0x0000081c:    1c70        p.      ADDS     r0,r6,#1
        0x0000081e:    d00f        ..      BEQ      0x840 ; IOSPI_ReadWrite + 88
        0x00000820:    4628        (F      MOV      r0,r5
        0x00000822:    2105        .!      MOVS     r1,#5
        0x00000824:    f7fffe3c    ..<.    BL       GPIO_AtomicClrBit ; 0x4a0
        0x00000828:    fa24f006    $...    LSR      r0,r4,r6
        0x0000082c:    07c0        ..      LSLS     r0,r0,#31
        0x0000082e:    bf00        ..      NOP      
        0x00000830:    4628        (F      MOV      r0,r5
        0x00000832:    f04f0108    O...    MOV      r1,#8
        0x00000836:    bf00        ..      NOP      
        0x00000838:    d0e0        ..      BEQ      0x7fc ; IOSPI_ReadWrite + 20
        0x0000083a:    f7fffe2b    ..+.    BL       GPIO_AtomicSetBit ; 0x494
        0x0000083e:    e7df        ..      B        0x800 ; IOSPI_ReadWrite + 24
        0x00000840:    b2f8        ..      UXTB     r0,r7
        0x00000842:    b001        ..      ADD      sp,sp,#4
        0x00000844:    bdf0        ..      POP      {r4-r7,pc}
        0x00000846:    bf00        ..      NOP      
    SFC_Read
        0x00000848:    2a00        .*      CMP      r2,#0
        0x0000084a:    bf08        ..      IT       EQ
        0x0000084c:    4770        pG      BXEQ     lr
        0x0000084e:    f10040e0    ...@    ADD      r0,r0,#0x70000000
        0x00000852:    3904        .9      SUBS     r1,#4
        0x00000854:    f8503b04    P..;    LDR      r3,[r0],#4
        0x00000858:    3a01        .:      SUBS     r2,#1
        0x0000085a:    f8413f04    A..?    STR      r3,[r1,#4]!
        0x0000085e:    d1f9        ..      BNE      0x854 ; SFC_Read + 12
        0x00000860:    4770        pG      BX       lr
        0x00000862:    bf00        ..      NOP      
    SFC_ReadStatusReg
        0x00000864:    f64a0100    J...    MOVW     r1,#0xa800
        0x00000868:    f2c40104    ....    MOVT     r1,#0x4004
        0x0000086c:    680a        .h      LDR      r2,[r1,#0]
        0x0000086e:    f022020f    "...    BIC      r2,r2,#0xf
        0x00000872:    600a        .`      STR      r2,[r1,#0]
        0x00000874:    680a        .h      LDR      r2,[r1,#0]
        0x00000876:    f0420221    B.!.    ORR      r2,r2,#0x21
        0x0000087a:    600a        .`      STR      r2,[r1,#0]
        0x0000087c:    6248        Hb      STR      r0,[r1,#0x24]
        0x0000087e:    2001        .       MOVS     r0,#1
        0x00000880:    6148        Ha      STR      r0,[r1,#0x14]
        0x00000882:    f3bf8f4f    ..O.    DSB      
        0x00000886:    f3bf8f6f    ..o.    ISB      
        0x0000088a:    6948        Hi      LDR      r0,[r1,#0x14]
        0x0000088c:    b120         .      CBZ      r0,0x898 ; SFC_ReadStatusReg + 52
        0x0000088e:    bf00        ..      NOP      
        0x00000890:    bf00        ..      NOP      
        0x00000892:    6948        Hi      LDR      r0,[r1,#0x14]
        0x00000894:    2800        .(      CMP      r0,#0
        0x00000896:    d1fb        ..      BNE      0x890 ; SFC_ReadStatusReg + 44
        0x00000898:    69c8        .i      LDR      r0,[r1,#0x1c]
        0x0000089a:    b2c0        ..      UXTB     r0,r0
        0x0000089c:    4770        pG      BX       lr
        0x0000089e:    bf00        ..      NOP      
    SFC_WriteStatusReg
        0x000008a0:    f64a0200    J...    MOVW     r2,#0xa800
        0x000008a4:    f2c40204    ....    MOVT     r2,#0x4004
        0x000008a8:    6813        .h      LDR      r3,[r2,#0]
        0x000008aa:    f023030f    #...    BIC      r3,r3,#0xf
        0x000008ae:    6013        .`      STR      r3,[r2,#0]
        0x000008b0:    f8d2c000    ....    LDR      r12,[r2,#0]
        0x000008b4:    f2410326    A.&.    MOV      r3,#0x1026
        0x000008b8:    ea43030c    C...    ORR      r3,r3,r12
        0x000008bc:    6013        .`      STR      r3,[r2,#0]
        0x000008be:    6250        Pb      STR      r0,[r2,#0x24]
        0x000008c0:    2001        .       MOVS     r0,#1
        0x000008c2:    61d1        .a      STR      r1,[r2,#0x1c]
        0x000008c4:    6150        Pa      STR      r0,[r2,#0x14]
        0x000008c6:    f3bf8f4f    ..O.    DSB      
        0x000008ca:    f3bf8f6f    ..o.    ISB      
        0x000008ce:    6950        Pi      LDR      r0,[r2,#0x14]
        0x000008d0:    2800        .(      CMP      r0,#0
        0x000008d2:    bf08        ..      IT       EQ
        0x000008d4:    4770        pG      BXEQ     lr
        0x000008d6:    bf00        ..      NOP      
        0x000008d8:    bf00        ..      NOP      
        0x000008da:    6950        Pi      LDR      r0,[r2,#0x14]
        0x000008dc:    2800        .(      CMP      r0,#0
        0x000008de:    d1fb        ..      BNE      0x8d8 ; SFC_WriteStatusReg + 56
        0x000008e0:    4770        pG      BX       lr
        0x000008e2:    0000        ..      MOVS     r0,r0
    FLASH_Erase
        0x000008e4:    0501        ..      LSLS     r1,r0,#20
        0x000008e6:    bf1c        ..      ITT      NE
        0x000008e8:    2002        .       MOVNE    r0,#2
        0x000008ea:    4770        pG      BXNE     lr
        0x000008ec:    b510        ..      PUSH     {r4,lr}
        0x000008ee:    f64f74ac    O..t    MOV      r4,#0xffac
        0x000008f2:    f3ef8110    ....    MRS      r1,PRIMASK
        0x000008f6:    b672        r.      CPSID    i
        0x000008f8:    f6c03411    ...4    MOVT     r4,#0xb11
        0x000008fc:    f2404271    @.qB    MOV      r2,#0x471
        0x00000900:    0b00        ..      LSRS     r0,r0,#12
        0x00000902:    f2c11200    ....    MOVT     r2,#0x1100
        0x00000906:    4621        !F      MOV      r1,r4
        0x00000908:    4790        .G      BLX      r2
        0x0000090a:    f24a000c    J...    MOV      r0,#0xa00c
        0x0000090e:    f2c40004    ....    MOVT     r0,#0x4004
        0x00000912:    6800        .h      LDR      r0,[r0,#0]
        0x00000914:    f2404201    @..B    MOV      r2,#0x401
        0x00000918:    f4402080    @..     ORR      r0,r0,#0x40000
        0x0000091c:    f2c11200    ....    MOVT     r2,#0x1100
        0x00000920:    4621        !F      MOV      r1,r4
        0x00000922:    4790        .G      BLX      r2
        0x00000924:    2000        .       MOVS     r0,#0
        0x00000926:    b662        b.      CPSIE    i
        0x00000928:    bd10        ..      POP      {r4,pc}
        0x0000092a:    bf00        ..      NOP      
    FLASH_Write
        0x0000092c:    b510        ..      PUSH     {r4,lr}
        0x0000092e:    f000030f    ....    AND      r3,r0,#0xf
        0x00000932:    f0020403    ....    AND      r4,r2,#3
        0x00000936:    4323        #C      ORRS     r3,r3,r4
        0x00000938:    bf1c        ..      ITT      NE
        0x0000093a:    2002        .       MOVNE    r0,#2
        0x0000093c:    bd10        ..      POPNE    {r4,pc}
        0x0000093e:    f64f74ac    O..t    MOV      r4,#0xffac
        0x00000942:    f3ef8310    ....    MRS      r3,PRIMASK
        0x00000946:    b672        r.      CPSID    i
        0x00000948:    f6c03411    ...4    MOVT     r4,#0xb11
        0x0000094c:    f2404cc1    @..L    MOV      r12,#0x4c1
        0x00000950:    0892        ..      LSRS     r2,r2,#2
        0x00000952:    f2c11c00    ....    MOVT     r12,#0x1100
        0x00000956:    4623        #F      MOV      r3,r4
        0x00000958:    47e0        .G      BLX      r12
        0x0000095a:    f24a000c    J...    MOV      r0,#0xa00c
        0x0000095e:    f2c40004    ....    MOVT     r0,#0x4004
        0x00000962:    6800        .h      LDR      r0,[r0,#0]
        0x00000964:    f2404201    @..B    MOV      r2,#0x401
        0x00000968:    f4402080    @..     ORR      r0,r0,#0x40000
        0x0000096c:    f2c11200    ....    MOVT     r2,#0x1100
        0x00000970:    4621        !F      MOV      r1,r4
        0x00000972:    4790        .G      BLX      r2
        0x00000974:    2000        .       MOVS     r0,#0
        0x00000976:    b662        b.      CPSIE    i
        0x00000978:    bd10        ..      POP      {r4,pc}
        0x0000097a:    bf00        ..      NOP      
    Flash_Param_at_xMHz
        0x0000097c:    b580        ..      PUSH     {r7,lr}
        0x0000097e:    f64f72ac    O..r    MOV      r2,#0xffac
        0x00000982:    f3ef8110    ....    MRS      r1,PRIMASK
        0x00000986:    b672        r.      CPSID    i
        0x00000988:    284f        O(      CMP      r0,#0x4f
        0x0000098a:    f6c03211    ...2    MOVT     r2,#0xb11
        0x0000098e:    dc0e        ..      BGT      0x9ae ; Flash_Param_at_xMHz + 50
        0x00000990:    281e        .(      CMP      r0,#0x1e
        0x00000992:    d02c        ,.      BEQ      0x9ee ; Flash_Param_at_xMHz + 114
        0x00000994:    2828        ((      CMP      r0,#0x28
        0x00000996:    d11b        ..      BNE      0x9d0 ; Flash_Param_at_xMHz + 84
        0x00000998:    f2404331    @.1C    MOV      r3,#0x431
        0x0000099c:    f6482049    H.I     MOV      r0,#0x8a49
        0x000009a0:    f24141a9    A..A    MOV      r1,#0x14a9
        0x000009a4:    f2c11300    ....    MOVT     r3,#0x1100
        0x000009a8:    4798        .G      BLX      r3
        0x000009aa:    b662        b.      CPSIE    i
        0x000009ac:    bd80        ..      POP      {r7,pc}
        0x000009ae:    2850        P(      CMP      r0,#0x50
        0x000009b0:    d028        (.      BEQ      0xa04 ; Flash_Param_at_xMHz + 136
        0x000009b2:    2878        x(      CMP      r0,#0x78
        0x000009b4:    d10c        ..      BNE      0x9d0 ; Flash_Param_at_xMHz + 84
        0x000009b6:    f6414089    A..@    MOV      r0,#0x1c89
        0x000009ba:    f2404331    @.1C    MOV      r3,#0x431
        0x000009be:    f2c00001    ....    MOVT     r0,#1
        0x000009c2:    f643516b    C.kQ    MOV      r1,#0x3d6b
        0x000009c6:    f2c11300    ....    MOVT     r3,#0x1100
        0x000009ca:    4798        .G      BLX      r3
        0x000009cc:    b662        b.      CPSIE    i
        0x000009ce:    bd80        ..      POP      {r7,pc}
        0x000009d0:    f6414089    A..@    MOV      r0,#0x1c89
        0x000009d4:    f2c00001    ....    MOVT     r0,#1
        0x000009d8:    f2404331    @.1C    MOV      r3,#0x431
        0x000009dc:    f5004092    ...@    ADD      r0,r0,#0x4900
        0x000009e0:    f6444174    D.tA    MOV      r1,#0x4c74
        0x000009e4:    f2c11300    ....    MOVT     r3,#0x1100
        0x000009e8:    4798        .G      BLX      r3
        0x000009ea:    b662        b.      CPSIE    i
        0x000009ec:    bd80        ..      POP      {r7,pc}
        0x000009ee:    f2404331    @.1C    MOV      r3,#0x431
        0x000009f2:    f6481049    H.I.    MOV      r0,#0x8949
        0x000009f6:    f64071a1    @..q    MOV      r1,#0xfa1
        0x000009fa:    f2c11300    ....    MOVT     r3,#0x1100
        0x000009fe:    4798        .G      BLX      r3
        0x00000a00:    b662        b.      CPSIE    i
        0x00000a02:    bd80        ..      POP      {r7,pc}
        0x00000a04:    f2404331    @.1C    MOV      r3,#0x431
        0x00000a08:    f24d3049    M.I0    MOV      r0,#0xd349
        0x00000a0c:    f642114a    B.J.    MOV      r1,#0x294a
        0x00000a10:    f2c11300    ....    MOVT     r3,#0x1100
        0x00000a14:    4798        .G      BLX      r3
        0x00000a16:    b662        b.      CPSIE    i
        0x00000a18:    bd80        ..      POP      {r7,pc}
        0x00000a1a:    0000        ..      MOVS     r0,r0
    SystemCoreClockUpdate
        0x00000a1c:    f04f4180    O..A    MOV      r1,#0x40000000
        0x00000a20:    6808        .h      LDR      r0,[r1,#0]
        0x00000a22:    07c0        ..      LSLS     r0,r0,#31
        0x00000a24:    f2400008    @...    MOVW     r0,#8
        0x00000a28:    f2c00000    ....    MOVT     r0,#0
        0x00000a2c:    d10c        ..      BNE      0xa48 ; SystemCoreClockUpdate + 44
        0x00000a2e:    6809        .h      LDR      r1,[r1,#0]
        0x00000a30:    f3c10182    ....    UBFX     r1,r1,#2,#3
        0x00000a34:    2904        .)      CMP      r1,#4
        0x00000a36:    d842        B.      BHI      0xabe ; SystemCoreClockUpdate + 162
        0x00000a38:    e8dff001    ....    TBB      [pc,r1]
    $d.1
        0x00000a3c:    29261603    ..&)    DCD    690361859
        0x00000a40:    002e        ..      DCW    46
    $t.2
        0x00000a42:    f44f41fa    O..A    MOV      r1,#0x7d00
        0x00000a46:    e038        8.      B        0xaba ; SystemCoreClockUpdate + 158
        0x00000a48:    f24a0100    J...    MOVW     r1,#0xa000
        0x00000a4c:    f2c4010a    ....    MOVT     r1,#0x400a
        0x00000a50:    6809        .h      LDR      r1,[r1,#0]
        0x00000a52:    0789        ..      LSLS     r1,r1,#30
        0x00000a54:    f6452100    E..!    MOVW     r1,#0x5a00
        0x00000a58:    f2c02162    ..b!    MOVT     r1,#0x262
        0x00000a5c:    bf5c        \.      ITT      PL
        0x00000a5e:    f6425100    B..Q    MOVWPL   r1,#0x2d00
        0x00000a62:    f2c01131    ..1.    MOVTPL   r1,#0x131
        0x00000a66:    e032        2.      B        0xace ; SystemCoreClockUpdate + 178
        0x00000a68:    f24a0100    J...    MOVW     r1,#0xa000
        0x00000a6c:    f2c4010a    ....    MOVT     r1,#0x400a
        0x00000a70:    6c09        .l      LDR      r1,[r1,#0x40]
        0x00000a72:    0789        ..      LSLS     r1,r1,#30
        0x00000a74:    f6406100    @..a    MOVW     r1,#0xe00
        0x00000a78:    f2c07127    ..'q    MOVT     r1,#0x727
        0x00000a7c:    bf5c        \.      ITT      PL
        0x00000a7e:    f24a2100    J..!    MOVWPL   r1,#0xa200
        0x00000a82:    f2c0414a    ..JA    MOVTPL   r1,#0x44a
        0x00000a86:    e018        ..      B        0xaba ; SystemCoreClockUpdate + 158
        0x00000a88:    f44f4100    O..A    MOV      r1,#0x8000
        0x00000a8c:    e015        ..      B        0xaba ; SystemCoreClockUpdate + 158
        0x00000a8e:    f6413100    A..1    MOVW     r1,#0x1b00
        0x00000a92:    f2c001b7    ....    MOVT     r1,#0xb7
        0x00000a96:    e010        ..      B        0xaba ; SystemCoreClockUpdate + 158
        0x00000a98:    f6425100    B..Q    MOVW     r1,#0x2d00
        0x00000a9c:    f2c01131    ..1.    MOVT     r1,#0x131
        0x00000aa0:    f8491000    I...    STR      r1,[r9,r0]
        0x00000aa4:    f24a0100    J...    MOVW     r1,#0xa000
        0x00000aa8:    f2c4010a    ....    MOVT     r1,#0x400a
        0x00000aac:    6809        .h      LDR      r1,[r1,#0]
        0x00000aae:    0789        ..      LSLS     r1,r1,#30
        0x00000ab0:    d505        ..      BPL      0xabe ; SystemCoreClockUpdate + 162
        0x00000ab2:    f6452100    E..!    MOVW     r1,#0x5a00
        0x00000ab6:    f2c02162    ..b!    MOVT     r1,#0x262
        0x00000aba:    f8491000    I...    STR      r1,[r9,r0]
        0x00000abe:    f04f4180    O..A    MOV      r1,#0x40000000
        0x00000ac2:    6809        .h      LDR      r1,[r1,#0]
        0x00000ac4:    0789        ..      LSLS     r1,r1,#30
        0x00000ac6:    d504        ..      BPL      0xad2 ; SystemCoreClockUpdate + 182
        0x00000ac8:    f8591000    Y...    LDR      r1,[r9,r0]
        0x00000acc:    08c9        ..      LSRS     r1,r1,#3
        0x00000ace:    f8491000    I...    STR      r1,[r9,r0]
        0x00000ad2:    f8590000    Y...    LDR      r0,[r9,r0]
        0x00000ad6:    f64d6183    M..a    MOV      r1,#0xde83
        0x00000ada:    f2c4311b    ...1    MOVT     r1,#0x431b
        0x00000ade:    fba00101    ....    UMULL    r0,r1,r0,r1
        0x00000ae2:    0c88        ..      LSRS     r0,r1,#18
        0x00000ae4:    f2400104    @...    MOVW     r1,#4
        0x00000ae8:    f2c00100    ....    MOVT     r1,#0
        0x00000aec:    f8490001    I...    STR      r0,[r9,r1]
        0x00000af0:    4770        pG      BX       lr
        0x00000af2:    bf00        ..      NOP      
    SystemInit
        0x00000af4:    b5b0        ..      PUSH     {r4,r5,r7,lr}
        0x00000af6:    2570        p%      MOVS     r5,#0x70
        0x00000af8:    f2c40500    ....    MOVT     r5,#0x4000
        0x00000afc:    f8550c68    U.h.    LDR      r0,[r5,#-0x68]
        0x00000b00:    2496        .$      MOVS     r4,#0x96
        0x00000b02:    f0407000    @..p    ORR      r0,r0,#0x2000000
        0x00000b06:    f8450c68    E.h.    STR      r0,[r5,#-0x68]
        0x00000b0a:    2096        .       MOVS     r0,#0x96
        0x00000b0c:    f7ffff36    ..6.    BL       Flash_Param_at_xMHz ; 0x97c
        0x00000b10:    2000        .       MOVS     r0,#0
        0x00000b12:    f000f841    ..A.    BL       switchToPLL ; 0xb98
        0x00000b16:    f7ffff81    ....    BL       SystemCoreClockUpdate ; 0xa1c
        0x00000b1a:    f2400008    @...    MOVW     r0,#8
        0x00000b1e:    f2c00000    ....    MOVT     r0,#0
        0x00000b22:    f8590000    Y...    LDR      r0,[r9,r0]
        0x00000b26:    f6406100    @..a    MOVW     r1,#0xe00
        0x00000b2a:    f2c07127    ..'q    MOVT     r1,#0x727
        0x00000b2e:    4288        .B      CMP      r0,r1
        0x00000b30:    d817        ..      BHI      0xb62 ; SystemInit + 110
        0x00000b32:    f24b4100    K..A    MOVW     r1,#0xb400
        0x00000b36:    f2c041c4    ...A    MOVT     r1,#0x4c4
        0x00000b3a:    4288        .B      CMP      r0,r1
        0x00000b3c:    d901        ..      BLS      0xb42 ; SystemInit + 78
        0x00000b3e:    2478        x$      MOVS     r4,#0x78
        0x00000b40:    e00f        ..      B        0xb62 ; SystemInit + 110
        0x00000b42:    f6452100    E..!    MOVW     r1,#0x5a00
        0x00000b46:    f2c02162    ..b!    MOVT     r1,#0x262
        0x00000b4a:    4288        .B      CMP      r0,r1
        0x00000b4c:    d901        ..      BLS      0xb52 ; SystemInit + 94
        0x00000b4e:    2450        P$      MOVS     r4,#0x50
        0x00000b50:    e007        ..      B        0xb62 ; SystemInit + 110
        0x00000b52:    f24c3180    L..1    MOV      r1,#0xc380
        0x00000b56:    f2c011c9    ....    MOVT     r1,#0x1c9
        0x00000b5a:    241e        .$      MOVS     r4,#0x1e
        0x00000b5c:    4288        .B      CMP      r0,r1
        0x00000b5e:    bf88        ..      IT       HI
        0x00000b60:    2428        ($      MOVHI    r4,#0x28
        0x00000b62:    4620         F      MOV      r0,r4
        0x00000b64:    f7ffff0a    ....    BL       Flash_Param_at_xMHz ; 0x97c
        0x00000b68:    f2401080    @...    MOVW     r0,#0x180
        0x00000b6c:    f2c4000a    ....    MOVT     r0,#0x400a
        0x00000b70:    f8d01100    ....    LDR      r1,[r0,#0x100]
        0x00000b74:    f0210102    !...    BIC      r1,r1,#2
        0x00000b78:    f8c01100    ....    STR      r1,[r0,#0x100]
        0x00000b7c:    6801        .h      LDR      r1,[r0,#0]
        0x00000b7e:    f021010c    !...    BIC      r1,r1,#0xc
        0x00000b82:    6001        .`      STR      r1,[r0,#0]
        0x00000b84:    6828        (h      LDR      r0,[r5,#0]
        0x00000b86:    f0200006     ...    BIC      r0,r0,#6
        0x00000b8a:    6028        (`      STR      r0,[r5,#0]
        0x00000b8c:    6828        (h      LDR      r0,[r5,#0]
        0x00000b8e:    f0400002    @...    ORR      r0,r0,#2
        0x00000b92:    6028        (`      STR      r0,[r5,#0]
        0x00000b94:    bdb0        ..      POP      {r4,r5,r7,pc}
        0x00000b96:    bf00        ..      NOP      
    switchToPLL
        0x00000b98:    b510        ..      PUSH     {r4,lr}
        0x00000b9a:    4604        .F      MOV      r4,r0
        0x00000b9c:    f000f820    .. .    BL       switchTo20MHz ; 0xbe0
        0x00000ba0:    f000f8d2    ....    BL       PLLInit ; 0xd48
        0x00000ba4:    2004        .       MOVS     r0,#4
        0x00000ba6:    f2c40000    ....    MOVT     r0,#0x4000
        0x00000baa:    2101        .!      MOVS     r1,#1
        0x00000bac:    6001        .`      STR      r1,[r0,#0]
        0x00000bae:    f04f4080    O..@    MOV      r0,#0x40000000
        0x00000bb2:    6801        .h      LDR      r1,[r0,#0]
        0x00000bb4:    2c00        .,      CMP      r4,#0
        0x00000bb6:    f021011c    !...    BIC      r1,r1,#0x1c
        0x00000bba:    6001        .`      STR      r1,[r0,#0]
        0x00000bbc:    6801        .h      LDR      r1,[r0,#0]
        0x00000bbe:    f0410104    A...    ORR      r1,r1,#4
        0x00000bc2:    6001        .`      STR      r1,[r0,#0]
        0x00000bc4:    6801        .h      LDR      r1,[r0,#0]
        0x00000bc6:    f0210102    !...    BIC      r1,r1,#2
        0x00000bca:    bf18        ..      IT       NE
        0x00000bcc:    3102        .1      ADDNE    r1,#2
        0x00000bce:    6001        .`      STR      r1,[r0,#0]
        0x00000bd0:    6801        .h      LDR      r1,[r0,#0]
        0x00000bd2:    f0210101    !...    BIC      r1,r1,#1
        0x00000bd6:    6001        .`      STR      r1,[r0,#0]
        0x00000bd8:    bd10        ..      POP      {r4,pc}
        0x00000bda:    bf00        ..      NOP      
    FPU_Enable
        0x00000bdc:    4770        pG      BX       lr
        0x00000bde:    bf00        ..      NOP      
    switchTo20MHz
        0x00000be0:    b580        ..      PUSH     {r7,lr}
        0x00000be2:    f24a0000    J...    MOVW     r0,#0xa000
        0x00000be6:    f2c4000a    ....    MOVT     r0,#0x400a
        0x00000bea:    2101        .!      MOVS     r1,#1
        0x00000bec:    6001        .`      STR      r1,[r0,#0]
        0x00000bee:    f000f807    ....    BL       delay_3ms ; 0xc00
        0x00000bf2:    f04f4080    O..@    MOV      r0,#0x40000000
        0x00000bf6:    6801        .h      LDR      r1,[r0,#0]
        0x00000bf8:    f0410101    A...    ORR      r1,r1,#1
        0x00000bfc:    6001        .`      STR      r1,[r0,#0]
        0x00000bfe:    bd80        ..      POP      {r7,pc}
    delay_3ms
        0x00000c00:    f04f4080    O..@    MOV      r0,#0x40000000
        0x00000c04:    6801        .h      LDR      r1,[r0,#0]
        0x00000c06:    07c9        ..      LSLS     r1,r1,#31
        0x00000c08:    d110        ..      BNE      0xc2c ; delay_3ms + 44
        0x00000c0a:    6800        .h      LDR      r0,[r0,#0]
        0x00000c0c:    f0100f1c    ....    TST      r0,#0x1c
        0x00000c10:    d006        ..      BEQ      0xc20 ; delay_3ms + 32
        0x00000c12:    f04f4080    O..@    MOV      r0,#0x40000000
        0x00000c16:    6800        .h      LDR      r0,[r0,#0]
        0x00000c18:    f000001c    ....    AND      r0,r0,#0x1c
        0x00000c1c:    2808        .(      CMP      r0,#8
        0x00000c1e:    d105        ..      BNE      0xc2c ; delay_3ms + 44
        0x00000c20:    2014        .       MOVS     r0,#0x14
        0x00000c22:    bf00        ..      NOP      
        0x00000c24:    3801        .8      SUBS     r0,#1
        0x00000c26:    bf00        ..      NOP      
        0x00000c28:    d1fc        ..      BNE      0xc24 ; delay_3ms + 36
        0x00000c2a:    e004        ..      B        0xc36 ; delay_3ms + 54
        0x00000c2c:    f6446020    D. `    MOV      r0,#0x4e20
        0x00000c30:    3801        .8      SUBS     r0,#1
        0x00000c32:    bf00        ..      NOP      
        0x00000c34:    d1fc        ..      BNE      0xc30 ; delay_3ms + 48
        0x00000c36:    4770        pG      BX       lr
    switchTo2M5Hz
        0x00000c38:    b510        ..      PUSH     {r4,lr}
        0x00000c3a:    f7ffffd1    ....    BL       switchTo20MHz ; 0xbe0
        0x00000c3e:    2004        .       MOVS     r0,#4
        0x00000c40:    f2c40000    ....    MOVT     r0,#0x4000
        0x00000c44:    2101        .!      MOVS     r1,#1
        0x00000c46:    6001        .`      STR      r1,[r0,#0]
        0x00000c48:    f04f4480    O..D    MOV      r4,#0x40000000
        0x00000c4c:    6820         h      LDR      r0,[r4,#0]
        0x00000c4e:    f020001c     ...    BIC      r0,r0,#0x1c
        0x00000c52:    6020         `      STR      r0,[r4,#0]
        0x00000c54:    6820         h      LDR      r0,[r4,#0]
        0x00000c56:    f0400010    @...    ORR      r0,r0,#0x10
        0x00000c5a:    6020         `      STR      r0,[r4,#0]
        0x00000c5c:    6820         h      LDR      r0,[r4,#0]
        0x00000c5e:    f0400002    @...    ORR      r0,r0,#2
        0x00000c62:    6020         `      STR      r0,[r4,#0]
        0x00000c64:    f7ffffcc    ....    BL       delay_3ms ; 0xc00
        0x00000c68:    6820         h      LDR      r0,[r4,#0]
        0x00000c6a:    f0200001     ...    BIC      r0,r0,#1
        0x00000c6e:    6020         `      STR      r0,[r4,#0]
        0x00000c70:    bd10        ..      POP      {r4,pc}
        0x00000c72:    bf00        ..      NOP      
    switchTo40MHz
        0x00000c74:    b580        ..      PUSH     {r7,lr}
        0x00000c76:    f24a0000    J...    MOVW     r0,#0xa000
        0x00000c7a:    f2c4000a    ....    MOVT     r0,#0x400a
        0x00000c7e:    2103        .!      MOVS     r1,#3
        0x00000c80:    6001        .`      STR      r1,[r0,#0]
        0x00000c82:    f7ffffbd    ....    BL       delay_3ms ; 0xc00
        0x00000c86:    f04f4080    O..@    MOV      r0,#0x40000000
        0x00000c8a:    6801        .h      LDR      r1,[r0,#0]
        0x00000c8c:    f0410101    A...    ORR      r1,r1,#1
        0x00000c90:    6001        .`      STR      r1,[r0,#0]
        0x00000c92:    bd80        ..      POP      {r7,pc}
    switchTo5MHz
        0x00000c94:    b510        ..      PUSH     {r4,lr}
        0x00000c96:    f7ffffed    ....    BL       switchTo40MHz ; 0xc74
        0x00000c9a:    2004        .       MOVS     r0,#4
        0x00000c9c:    f2c40000    ....    MOVT     r0,#0x4000
        0x00000ca0:    2101        .!      MOVS     r1,#1
        0x00000ca2:    6001        .`      STR      r1,[r0,#0]
        0x00000ca4:    f04f4480    O..D    MOV      r4,#0x40000000
        0x00000ca8:    6820         h      LDR      r0,[r4,#0]
        0x00000caa:    f020001c     ...    BIC      r0,r0,#0x1c
        0x00000cae:    6020         `      STR      r0,[r4,#0]
        0x00000cb0:    6820         h      LDR      r0,[r4,#0]
        0x00000cb2:    f0400010    @...    ORR      r0,r0,#0x10
        0x00000cb6:    6020         `      STR      r0,[r4,#0]
        0x00000cb8:    6820         h      LDR      r0,[r4,#0]
        0x00000cba:    f0400002    @...    ORR      r0,r0,#2
        0x00000cbe:    6020         `      STR      r0,[r4,#0]
        0x00000cc0:    f7ffff9e    ....    BL       delay_3ms ; 0xc00
        0x00000cc4:    6820         h      LDR      r0,[r4,#0]
        0x00000cc6:    f0200001     ...    BIC      r0,r0,#1
        0x00000cca:    6020         `      STR      r0,[r4,#0]
        0x00000ccc:    bd10        ..      POP      {r4,pc}
        0x00000cce:    bf00        ..      NOP      
    switchToXTAL
        0x00000cd0:    b5b0        ..      PUSH     {r4,r5,r7,lr}
        0x00000cd2:    4604        .F      MOV      r4,r0
        0x00000cd4:    f7ffff84    ....    BL       switchTo20MHz ; 0xbe0
        0x00000cd8:    2500        .%      MOVS     r5,#0
        0x00000cda:    f2c4050a    ....    MOVT     r5,#0x400a
        0x00000cde:    4628        (F      MOV      r0,r5
        0x00000ce0:    2103        .!      MOVS     r1,#3
        0x00000ce2:    220f        ."      MOVS     r2,#0xf
        0x00000ce4:    2300        .#      MOVS     r3,#0
        0x00000ce6:    f7fffaaf    ....    BL       PORT_Init ; 0x248
        0x00000cea:    4628        (F      MOV      r0,r5
        0x00000cec:    2104        .!      MOVS     r1,#4
        0x00000cee:    220f        ."      MOVS     r2,#0xf
        0x00000cf0:    2300        .#      MOVS     r3,#0
        0x00000cf2:    f7fffaa9    ....    BL       PORT_Init ; 0x248
        0x00000cf6:    f24a0020    J. .    MOV      r0,#0xa020
        0x00000cfa:    f2c4000a    ....    MOVT     r0,#0x400a
        0x00000cfe:    6801        .h      LDR      r1,[r0,#0]
        0x00000d00:    f4412170    A.p!    ORR      r1,r1,#0xf0000
        0x00000d04:    f0410122    A.".    ORR      r1,r1,#0x22
        0x00000d08:    6001        .`      STR      r1,[r0,#0]
        0x00000d0a:    f7ffff79    ..y.    BL       delay_3ms ; 0xc00
        0x00000d0e:    f7ffff77    ..w.    BL       delay_3ms ; 0xc00
        0x00000d12:    2004        .       MOVS     r0,#4
        0x00000d14:    f2c40000    ....    MOVT     r0,#0x4000
        0x00000d18:    2101        .!      MOVS     r1,#1
        0x00000d1a:    6001        .`      STR      r1,[r0,#0]
        0x00000d1c:    f04f4080    O..@    MOV      r0,#0x40000000
        0x00000d20:    6801        .h      LDR      r1,[r0,#0]
        0x00000d22:    2c00        .,      CMP      r4,#0
        0x00000d24:    f021011c    !...    BIC      r1,r1,#0x1c
        0x00000d28:    6001        .`      STR      r1,[r0,#0]
        0x00000d2a:    6801        .h      LDR      r1,[r0,#0]
        0x00000d2c:    f041010c    A...    ORR      r1,r1,#0xc
        0x00000d30:    6001        .`      STR      r1,[r0,#0]
        0x00000d32:    6801        .h      LDR      r1,[r0,#0]
        0x00000d34:    f0210102    !...    BIC      r1,r1,#2
        0x00000d38:    bf18        ..      IT       NE
        0x00000d3a:    3102        .1      ADDNE    r1,#2
        0x00000d3c:    6001        .`      STR      r1,[r0,#0]
        0x00000d3e:    6801        .h      LDR      r1,[r0,#0]
        0x00000d40:    f0210101    !...    BIC      r1,r1,#1
        0x00000d44:    6001        .`      STR      r1,[r0,#0]
        0x00000d46:    bdb0        ..      POP      {r4,r5,r7,pc}
    PLLInit
        0x00000d48:    b510        ..      PUSH     {r4,lr}
        0x00000d4a:    f24a0440    J.@.    MOV      r4,#0xa040
        0x00000d4e:    f2c4040a    ....    MOVT     r4,#0x400a
        0x00000d52:    2001        .       MOVS     r0,#1
        0x00000d54:    f8440c40    D.@.    STR      r0,[r4,#-0x40]
        0x00000d58:    f7ffff52    ..R.    BL       delay_3ms ; 0xc00
        0x00000d5c:    6820         h      LDR      r0,[r4,#0]
        0x00000d5e:    f64f6100    O..a    MOVW     r1,#0xfe00
        0x00000d62:    f0400002    @...    ORR      r0,r0,#2
        0x00000d66:    6020         `      STR      r0,[r4,#0]
        0x00000d68:    6860        `h      LDR      r0,[r4,#4]
        0x00000d6a:    f6cf41e0    ...A    MOVT     r1,#0xfce0
        0x00000d6e:    4008        .@      ANDS     r0,r0,r1
        0x00000d70:    6060        ``      STR      r0,[r4,#4]
        0x00000d72:    6860        `h      LDR      r0,[r4,#4]
        0x00000d74:    f44020a0    @..     ORR      r0,r0,#0x50000
        0x00000d78:    f040003c    @.<.    ORR      r0,r0,#0x3c
        0x00000d7c:    6060        ``      STR      r0,[r4,#4]
        0x00000d7e:    6820         h      LDR      r0,[r4,#0]
        0x00000d80:    f0200004     ...    BIC      r0,r0,#4
        0x00000d84:    6020         `      STR      r0,[r4,#0]
        0x00000d86:    bf00        ..      NOP      
        0x00000d88:    68e0        .h      LDR      r0,[r4,#0xc]
        0x00000d8a:    2800        .(      CMP      r0,#0
        0x00000d8c:    d0fc        ..      BEQ      0xd88 ; PLLInit + 64
        0x00000d8e:    6820         h      LDR      r0,[r4,#0]
        0x00000d90:    f0400001    @...    ORR      r0,r0,#1
        0x00000d94:    6020         `      STR      r0,[r4,#0]
        0x00000d96:    bd10        ..      POP      {r4,pc}
    switchTo32KHz
        0x00000d98:    b510        ..      PUSH     {r4,lr}
        0x00000d9a:    f7ffff21    ..!.    BL       switchTo20MHz ; 0xbe0
        0x00000d9e:    f24a0050    J.P.    MOV      r0,#0xa050
        0x00000da2:    f2c4000a    ....    MOVT     r0,#0x400a
        0x00000da6:    2101        .!      MOVS     r1,#1
        0x00000da8:    6001        .`      STR      r1,[r0,#0]
        0x00000daa:    2004        .       MOVS     r0,#4
        0x00000dac:    f2c40000    ....    MOVT     r0,#0x4000
        0x00000db0:    6001        .`      STR      r1,[r0,#0]
        0x00000db2:    f04f4480    O..D    MOV      r4,#0x40000000
        0x00000db6:    6820         h      LDR      r0,[r4,#0]
        0x00000db8:    f020001c     ...    BIC      r0,r0,#0x1c
        0x00000dbc:    6020         `      STR      r0,[r4,#0]
        0x00000dbe:    6820         h      LDR      r0,[r4,#0]
        0x00000dc0:    6020         `      STR      r0,[r4,#0]
        0x00000dc2:    6820         h      LDR      r0,[r4,#0]
        0x00000dc4:    f0200002     ...    BIC      r0,r0,#2
        0x00000dc8:    6020         `      STR      r0,[r4,#0]
        0x00000dca:    f7ffff19    ....    BL       delay_3ms ; 0xc00
        0x00000dce:    6820         h      LDR      r0,[r4,#0]
        0x00000dd0:    f0200001     ...    BIC      r0,r0,#1
        0x00000dd4:    6020         `      STR      r0,[r4,#0]
        0x00000dd6:    bd10        ..      POP      {r4,pc}
    switchToXTAL_32K
        0x00000dd8:    b510        ..      PUSH     {r4,lr}
        0x00000dda:    f7ffff01    ....    BL       switchTo20MHz ; 0xbe0
        0x00000dde:    f24a0020    J. .    MOV      r0,#0xa020
        0x00000de2:    f2c4000a    ....    MOVT     r0,#0x400a
        0x00000de6:    6801        .h      LDR      r1,[r0,#0]
        0x00000de8:    f2407211    @..r    MOV      r2,#0x711
        0x00000dec:    4311        .C      ORRS     r1,r1,r2
        0x00000dee:    6001        .`      STR      r1,[r0,#0]
        0x00000df0:    f44f707a    O.zp    MOV      r0,#0x3e8
        0x00000df4:    3801        .8      SUBS     r0,#1
        0x00000df6:    bf00        ..      NOP      
        0x00000df8:    d1fc        ..      BNE      0xdf4 ; switchToXTAL_32K + 28
        0x00000dfa:    2004        .       MOVS     r0,#4
        0x00000dfc:    f2c40000    ....    MOVT     r0,#0x4000
        0x00000e00:    2101        .!      MOVS     r1,#1
        0x00000e02:    6001        .`      STR      r1,[r0,#0]
        0x00000e04:    f04f4480    O..D    MOV      r4,#0x40000000
        0x00000e08:    6820         h      LDR      r0,[r4,#0]
        0x00000e0a:    f020001c     ...    BIC      r0,r0,#0x1c
        0x00000e0e:    6020         `      STR      r0,[r4,#0]
        0x00000e10:    6820         h      LDR      r0,[r4,#0]
        0x00000e12:    f0400008    @...    ORR      r0,r0,#8
        0x00000e16:    6020         `      STR      r0,[r4,#0]
        0x00000e18:    6820         h      LDR      r0,[r4,#0]
        0x00000e1a:    f0200002     ...    BIC      r0,r0,#2
        0x00000e1e:    6020         `      STR      r0,[r4,#0]
        0x00000e20:    f7fffeee    ....    BL       delay_3ms ; 0xc00
        0x00000e24:    6820         h      LDR      r0,[r4,#0]
        0x00000e26:    f0200001     ...    BIC      r0,r0,#1
        0x00000e2a:    6020         `      STR      r0,[r4,#0]
        0x00000e2c:    bd10        ..      POP      {r4,pc}
        0x00000e2e:    0000        ..      MOVS     r0,r0
    $d.realdata
    IAP_Cache_Reset
        0x00000e30:    11000401    ....    DCD    285213697
    IAP_Flash_Erase
        0x00000e34:    11000471    q...    DCD    285213809
    IAP_Flash_Param
        0x00000e38:    11000431    1...    DCD    285213745
    IAP_Flash_Write
        0x00000e3c:    110004c1    ....    DCD    285213889

** Section #2 'PrgData' (SHT_PROGBITS) [SHF_ALLOC + SHF_WRITE]
    Size   : 12 bytes (alignment 4)
    Address: 0x00000e40


** Section #3 'DevDscr' (SHT_PROGBITS) [SHF_ALLOC + SHF_EXECINSTR]
    Size   : 4256 bytes (alignment 4)
    Address: 0x00000e4c

    $d.realdata
    FlashDevice
        0x00000e4c:    57530101    ..SW    DCD    1465057537
        0x00000e50:    3134334d    M341    DCD    825504589
        0x00000e54:    43465320     SFC    DCD    1128682272
        0x00000e58:    00000000    ....    DCD    0
        0x00000e5c:    00000000    ....    DCD    0
        0x00000e60:    00000000    ....    DCD    0
        0x00000e64:    00000000    ....    DCD    0
        0x00000e68:    00000000    ....    DCD    0
        0x00000e6c:    00000000    ....    DCD    0
        0x00000e70:    00000000    ....    DCD    0
        0x00000e74:    00000000    ....    DCD    0
        0x00000e78:    00000000    ....    DCD    0
        0x00000e7c:    00000000    ....    DCD    0
        0x00000e80:    00000000    ....    DCD    0
        0x00000e84:    00000000    ....    DCD    0
        0x00000e88:    00000000    ....    DCD    0
        0x00000e8c:    00000000    ....    DCD    0
        0x00000e90:    00000000    ....    DCD    0
        0x00000e94:    00000000    ....    DCD    0
        0x00000e98:    00000000    ....    DCD    0
        0x00000e9c:    00000000    ....    DCD    0
        0x00000ea0:    00000000    ....    DCD    0
        0x00000ea4:    00000000    ....    DCD    0
        0x00000ea8:    00000000    ....    DCD    0
        0x00000eac:    00000000    ....    DCD    0
        0x00000eb0:    00000000    ....    DCD    0
        0x00000eb4:    00000000    ....    DCD    0
        0x00000eb8:    00000000    ....    DCD    0
        0x00000ebc:    00000000    ....    DCD    0
        0x00000ec0:    00000000    ....    DCD    0
        0x00000ec4:    00000000    ....    DCD    0
        0x00000ec8:    00000000    ....    DCD    0
        0x00000ecc:    00010000    ....    DCD    65536
        0x00000ed0:    70000000    ...p    DCD    1879048192
        0x00000ed4:    01000000    ....    DCD    16777216
        0x00000ed8:    00001000    ....    DCD    4096
        0x00000edc:    00000000    ....    DCD    0
        0x00000ee0:    000000ff    ....    DCD    255
        0x00000ee4:    000003e8    ....    DCD    1000
        0x00000ee8:    000007d0    ....    DCD    2000
        0x00000eec:    00010000    ....    DCD    65536
        0x00000ef0:    00000000    ....    DCD    0
        0x00000ef4:    ffffffff    ....    DCD    4294967295
        0x00000ef8:    ffffffff    ....    DCD    4294967295
        0x00000efc:    00000000    ....    DCD    0
        0x00000f00:    00000000    ....    DCD    0
        0x00000f04:    00000000    ....    DCD    0
        0x00000f08:    00000000    ....    DCD    0
        0x00000f0c:    00000000    ....    DCD    0
        0x00000f10:    00000000    ....    DCD    0
        0x00000f14:    00000000    ....    DCD    0
        0x00000f18:    00000000    ....    DCD    0
        0x00000f1c:    00000000    ....    DCD    0
        0x00000f20:    00000000    ....    DCD    0
        0x00000f24:    00000000    ....    DCD    0
        0x00000f28:    00000000    ....    DCD    0
        0x00000f2c:    00000000    ....    DCD    0
        0x00000f30:    00000000    ....    DCD    0
        0x00000f34:    00000000    ....    DCD    0
        0x00000f38:    00000000    ....    DCD    0
        0x00000f3c:    00000000    ....    DCD    0
        0x00000f40:    00000000    ....    DCD    0
        0x00000f44:    00000000    ....    DCD    0
        0x00000f48:    00000000    ....    DCD    0
        0x00000f4c:    00000000    ....    DCD    0
        0x00000f50:    00000000    ....    DCD    0
        0x00000f54:    00000000    ....    DCD    0
        0x00000f58:    00000000    ....    DCD    0
        0x00000f5c:    00000000    ....    DCD    0
        0x00000f60:    00000000    ....    DCD    0
        0x00000f64:    00000000    ....    DCD    0
        0x00000f68:    00000000    ....    DCD    0
        0x00000f6c:    00000000    ....    DCD    0
        0x00000f70:    00000000    ....    DCD    0
        0x00000f74:    00000000    ....    DCD    0
        0x00000f78:    00000000    ....    DCD    0
        0x00000f7c:    00000000    ....    DCD    0
        0x00000f80:    00000000    ....    DCD    0
        0x00000f84:    00000000    ....    DCD    0
        0x00000f88:    00000000    ....    DCD    0
        0x00000f8c:    00000000    ....    DCD    0
        0x00000f90:    00000000    ....    DCD    0
        0x00000f94:    00000000    ....    DCD    0
        0x00000f98:    00000000    ....    DCD    0
        0x00000f9c:    00000000    ....    DCD    0
        0x00000fa0:    00000000    ....    DCD    0
        0x00000fa4:    00000000    ....    DCD    0
        0x00000fa8:    00000000    ....    DCD    0
        0x00000fac:    00000000    ....    DCD    0
        0x00000fb0:    00000000    ....    DCD    0
        0x00000fb4:    00000000    ....    DCD    0
        0x00000fb8:    00000000    ....    DCD    0
        0x00000fbc:    00000000    ....    DCD    0
        0x00000fc0:    00000000    ....    DCD    0
        0x00000fc4:    00000000    ....    DCD    0
        0x00000fc8:    00000000    ....    DCD    0
        0x00000fcc:    00000000    ....    DCD    0
        0x00000fd0:    00000000    ....    DCD    0
        0x00000fd4:    00000000    ....    DCD    0
        0x00000fd8:    00000000    ....    DCD    0
        0x00000fdc:    00000000    ....    DCD    0
        0x00000fe0:    00000000    ....    DCD    0
        0x00000fe4:    00000000    ....    DCD    0
        0x00000fe8:    00000000    ....    DCD    0
        0x00000fec:    00000000    ....    DCD    0
        0x00000ff0:    00000000    ....    DCD    0
        0x00000ff4:    00000000    ....    DCD    0
        0x00000ff8:    00000000    ....    DCD    0
        0x00000ffc:    00000000    ....    DCD    0
        0x00001000:    00000000    ....    DCD    0
        0x00001004:    00000000    ....    DCD    0
        0x00001008:    00000000    ....    DCD    0
        0x0000100c:    00000000    ....    DCD    0
        0x00001010:    00000000    ....    DCD    0
        0x00001014:    00000000    ....    DCD    0
        0x00001018:    00000000    ....    DCD    0
        0x0000101c:    00000000    ....    DCD    0
        0x00001020:    00000000    ....    DCD    0
        0x00001024:    00000000    ....    DCD    0
        0x00001028:    00000000    ....    DCD    0
        0x0000102c:    00000000    ....    DCD    0
        0x00001030:    00000000    ....    DCD    0
        0x00001034:    00000000    ....    DCD    0
        0x00001038:    00000000    ....    DCD    0
        0x0000103c:    00000000    ....    DCD    0
        0x00001040:    00000000    ....    DCD    0
        0x00001044:    00000000    ....    DCD    0
        0x00001048:    00000000    ....    DCD    0
        0x0000104c:    00000000    ....    DCD    0
        0x00001050:    00000000    ....    DCD    0
        0x00001054:    00000000    ....    DCD    0
        0x00001058:    00000000    ....    DCD    0
        0x0000105c:    00000000    ....    DCD    0
        0x00001060:    00000000    ....    DCD    0
        0x00001064:    00000000    ....    DCD    0
        0x00001068:    00000000    ....    DCD    0
        0x0000106c:    00000000    ....    DCD    0
        0x00001070:    00000000    ....    DCD    0
        0x00001074:    00000000    ....    DCD    0
        0x00001078:    00000000    ....    DCD    0
        0x0000107c:    00000000    ....    DCD    0
        0x00001080:    00000000    ....    DCD    0
        0x00001084:    00000000    ....    DCD    0
        0x00001088:    00000000    ....    DCD    0
        0x0000108c:    00000000    ....    DCD    0
        0x00001090:    00000000    ....    DCD    0
        0x00001094:    00000000    ....    DCD    0
        0x00001098:    00000000    ....    DCD    0
        0x0000109c:    00000000    ....    DCD    0
        0x000010a0:    00000000    ....    DCD    0
        0x000010a4:    00000000    ....    DCD    0
        0x000010a8:    00000000    ....    DCD    0
        0x000010ac:    00000000    ....    DCD    0
        0x000010b0:    00000000    ....    DCD    0
        0x000010b4:    00000000    ....    DCD    0
        0x000010b8:    00000000    ....    DCD    0
        0x000010bc:    00000000    ....    DCD    0
        0x000010c0:    00000000    ....    DCD    0
        0x000010c4:    00000000    ....    DCD    0
        0x000010c8:    00000000    ....    DCD    0
        0x000010cc:    00000000    ....    DCD    0
        0x000010d0:    00000000    ....    DCD    0
        0x000010d4:    00000000    ....    DCD    0
        0x000010d8:    00000000    ....    DCD    0
        0x000010dc:    00000000    ....    DCD    0
        0x000010e0:    00000000    ....    DCD    0
        0x000010e4:    00000000    ....    DCD    0
        0x000010e8:    00000000    ....    DCD    0
        0x000010ec:    00000000    ....    DCD    0
        0x000010f0:    00000000    ....    DCD    0
        0x000010f4:    00000000    ....    DCD    0
        0x000010f8:    00000000    ....    DCD    0
        0x000010fc:    00000000    ....    DCD    0
        0x00001100:    00000000    ....    DCD    0
        0x00001104:    00000000    ....    DCD    0
        0x00001108:    00000000    ....    DCD    0
        0x0000110c:    00000000    ....    DCD    0
        0x00001110:    00000000    ....    DCD    0
        0x00001114:    00000000    ....    DCD    0
        0x00001118:    00000000    ....    DCD    0
        0x0000111c:    00000000    ....    DCD    0
        0x00001120:    00000000    ....    DCD    0
        0x00001124:    00000000    ....    DCD    0
        0x00001128:    00000000    ....    DCD    0
        0x0000112c:    00000000    ....    DCD    0
        0x00001130:    00000000    ....    DCD    0
        0x00001134:    00000000    ....    DCD    0
        0x00001138:    00000000    ....    DCD    0
        0x0000113c:    00000000    ....    DCD    0
        0x00001140:    00000000    ....    DCD    0
        0x00001144:    00000000    ....    DCD    0
        0x00001148:    00000000    ....    DCD    0
        0x0000114c:    00000000    ....    DCD    0
        0x00001150:    00000000    ....    DCD    0
        0x00001154:    00000000    ....    DCD    0
        0x00001158:    00000000    ....    DCD    0
        0x0000115c:    00000000    ....    DCD    0
        0x00001160:    00000000    ....    DCD    0
        0x00001164:    00000000    ....    DCD    0
        0x00001168:    00000000    ....    DCD    0
        0x0000116c:    00000000    ....    DCD    0
        0x00001170:    00000000    ....    DCD    0
        0x00001174:    00000000    ....    DCD    0
        0x00001178:    00000000    ....    DCD    0
        0x0000117c:    00000000    ....    DCD    0
        0x00001180:    00000000    ....    DCD    0
        0x00001184:    00000000    ....    DCD    0
        0x00001188:    00000000    ....    DCD    0
        0x0000118c:    00000000    ....    DCD    0
        0x00001190:    00000000    ....    DCD    0
        0x00001194:    00000000    ....    DCD    0
        0x00001198:    00000000    ....    DCD    0
        0x0000119c:    00000000    ....    DCD    0
        0x000011a0:    00000000    ....    DCD    0
        0x000011a4:    00000000    ....    DCD    0
        0x000011a8:    00000000    ....    DCD    0
        0x000011ac:    00000000    ....    DCD    0
        0x000011b0:    00000000    ....    DCD    0
        0x000011b4:    00000000    ....    DCD    0
        0x000011b8:    00000000    ....    DCD    0
        0x000011bc:    00000000    ....    DCD    0
        0x000011c0:    00000000    ....    DCD    0
        0x000011c4:    00000000    ....    DCD    0
        0x000011c8:    00000000    ....    DCD    0
        0x000011cc:    00000000    ....    DCD    0
        0x000011d0:    00000000    ....    DCD    0
        0x000011d4:    00000000    ....    DCD    0
        0x000011d8:    00000000    ....    DCD    0
        0x000011dc:    00000000    ....    DCD    0
        0x000011e0:    00000000    ....    DCD    0
        0x000011e4:    00000000    ....    DCD    0
        0x000011e8:    00000000    ....    DCD    0
        0x000011ec:    00000000    ....    DCD    0
        0x000011f0:    00000000    ....    DCD    0
        0x000011f4:    00000000    ....    DCD    0
        0x000011f8:    00000000    ....    DCD    0
        0x000011fc:    00000000    ....    DCD    0
        0x00001200:    00000000    ....    DCD    0
        0x00001204:    00000000    ....    DCD    0
        0x00001208:    00000000    ....    DCD    0
        0x0000120c:    00000000    ....    DCD    0
        0x00001210:    00000000    ....    DCD    0
        0x00001214:    00000000    ....    DCD    0
        0x00001218:    00000000    ....    DCD    0
        0x0000121c:    00000000    ....    DCD    0
        0x00001220:    00000000    ....    DCD    0
        0x00001224:    00000000    ....    DCD    0
        0x00001228:    00000000    ....    DCD    0
        0x0000122c:    00000000    ....    DCD    0
        0x00001230:    00000000    ....    DCD    0
        0x00001234:    00000000    ....    DCD    0
        0x00001238:    00000000    ....    DCD    0
        0x0000123c:    00000000    ....    DCD    0
        0x00001240:    00000000    ....    DCD    0
        0x00001244:    00000000    ....    DCD    0
        0x00001248:    00000000    ....    DCD    0
        0x0000124c:    00000000    ....    DCD    0
        0x00001250:    00000000    ....    DCD    0
        0x00001254:    00000000    ....    DCD    0
        0x00001258:    00000000    ....    DCD    0
        0x0000125c:    00000000    ....    DCD    0
        0x00001260:    00000000    ....    DCD    0
        0x00001264:    00000000    ....    DCD    0
        0x00001268:    00000000    ....    DCD    0
        0x0000126c:    00000000    ....    DCD    0
        0x00001270:    00000000    ....    DCD    0
        0x00001274:    00000000    ....    DCD    0
        0x00001278:    00000000    ....    DCD    0
        0x0000127c:    00000000    ....    DCD    0
        0x00001280:    00000000    ....    DCD    0
        0x00001284:    00000000    ....    DCD    0
        0x00001288:    00000000    ....    DCD    0
        0x0000128c:    00000000    ....    DCD    0
        0x00001290:    00000000    ....    DCD    0
        0x00001294:    00000000    ....    DCD    0
        0x00001298:    00000000    ....    DCD    0
        0x0000129c:    00000000    ....    DCD    0
        0x000012a0:    00000000    ....    DCD    0
        0x000012a4:    00000000    ....    DCD    0
        0x000012a8:    00000000    ....    DCD    0
        0x000012ac:    00000000    ....    DCD    0
        0x000012b0:    00000000    ....    DCD    0
        0x000012b4:    00000000    ....    DCD    0
        0x000012b8:    00000000    ....    DCD    0
        0x000012bc:    00000000    ....    DCD    0
        0x000012c0:    00000000    ....    DCD    0
        0x000012c4:    00000000    ....    DCD    0
        0x000012c8:    00000000    ....    DCD    0
        0x000012cc:    00000000    ....    DCD    0
        0x000012d0:    00000000    ....    DCD    0
        0x000012d4:    00000000    ....    DCD    0
        0x000012d8:    00000000    ....    DCD    0
        0x000012dc:    00000000    ....    DCD    0
        0x000012e0:    00000000    ....    DCD    0
        0x000012e4:    00000000    ....    DCD    0
        0x000012e8:    00000000    ....    DCD    0
        0x000012ec:    00000000    ....    DCD    0
        0x000012f0:    00000000    ....    DCD    0
        0x000012f4:    00000000    ....    DCD    0
        0x000012f8:    00000000    ....    DCD    0
        0x000012fc:    00000000    ....    DCD    0
        0x00001300:    00000000    ....    DCD    0
        0x00001304:    00000000    ....    DCD    0
        0x00001308:    00000000    ....    DCD    0
        0x0000130c:    00000000    ....    DCD    0
        0x00001310:    00000000    ....    DCD    0
        0x00001314:    00000000    ....    DCD    0
        0x00001318:    00000000    ....    DCD    0
        0x0000131c:    00000000    ....    DCD    0
        0x00001320:    00000000    ....    DCD    0
        0x00001324:    00000000    ....    DCD    0
        0x00001328:    00000000    ....    DCD    0
        0x0000132c:    00000000    ....    DCD    0
        0x00001330:    00000000    ....    DCD    0
        0x00001334:    00000000    ....    DCD    0
        0x00001338:    00000000    ....    DCD    0
        0x0000133c:    00000000    ....    DCD    0
        0x00001340:    00000000    ....    DCD    0
        0x00001344:    00000000    ....    DCD    0
        0x00001348:    00000000    ....    DCD    0
        0x0000134c:    00000000    ....    DCD    0
        0x00001350:    00000000    ....    DCD    0
        0x00001354:    00000000    ....    DCD    0
        0x00001358:    00000000    ....    DCD    0
        0x0000135c:    00000000    ....    DCD    0
        0x00001360:    00000000    ....    DCD    0
        0x00001364:    00000000    ....    DCD    0
        0x00001368:    00000000    ....    DCD    0
        0x0000136c:    00000000    ....    DCD    0
        0x00001370:    00000000    ....    DCD    0
        0x00001374:    00000000    ....    DCD    0
        0x00001378:    00000000    ....    DCD    0
        0x0000137c:    00000000    ....    DCD    0
        0x00001380:    00000000    ....    DCD    0
        0x00001384:    00000000    ....    DCD    0
        0x00001388:    00000000    ....    DCD    0
        0x0000138c:    00000000    ....    DCD    0
        0x00001390:    00000000    ....    DCD    0
        0x00001394:    00000000    ....    DCD    0
        0x00001398:    00000000    ....    DCD    0
        0x0000139c:    00000000    ....    DCD    0
        0x000013a0:    00000000    ....    DCD    0
        0x000013a4:    00000000    ....    DCD    0
        0x000013a8:    00000000    ....    DCD    0
        0x000013ac:    00000000    ....    DCD    0
        0x000013b0:    00000000    ....    DCD    0
        0x000013b4:    00000000    ....    DCD    0
        0x000013b8:    00000000    ....    DCD    0
        0x000013bc:    00000000    ....    DCD    0
        0x000013c0:    00000000    ....    DCD    0
        0x000013c4:    00000000    ....    DCD    0
        0x000013c8:    00000000    ....    DCD    0
        0x000013cc:    00000000    ....    DCD    0
        0x000013d0:    00000000    ....    DCD    0
        0x000013d4:    00000000    ....    DCD    0
        0x000013d8:    00000000    ....    DCD    0
        0x000013dc:    00000000    ....    DCD    0
        0x000013e0:    00000000    ....    DCD    0
        0x000013e4:    00000000    ....    DCD    0
        0x000013e8:    00000000    ....    DCD    0
        0x000013ec:    00000000    ....    DCD    0
        0x000013f0:    00000000    ....    DCD    0
        0x000013f4:    00000000    ....    DCD    0
        0x000013f8:    00000000    ....    DCD    0
        0x000013fc:    00000000    ....    DCD    0
        0x00001400:    00000000    ....    DCD    0
        0x00001404:    00000000    ....    DCD    0
        0x00001408:    00000000    ....    DCD    0
        0x0000140c:    00000000    ....    DCD    0
        0x00001410:    00000000    ....    DCD    0
        0x00001414:    00000000    ....    DCD    0
        0x00001418:    00000000    ....    DCD    0
        0x0000141c:    00000000    ....    DCD    0
        0x00001420:    00000000    ....    DCD    0
        0x00001424:    00000000    ....    DCD    0
        0x00001428:    00000000    ....    DCD    0
        0x0000142c:    00000000    ....    DCD    0
        0x00001430:    00000000    ....    DCD    0
        0x00001434:    00000000    ....    DCD    0
        0x00001438:    00000000    ....    DCD    0
        0x0000143c:    00000000    ....    DCD    0
        0x00001440:    00000000    ....    DCD    0
        0x00001444:    00000000    ....    DCD    0
        0x00001448:    00000000    ....    DCD    0
        0x0000144c:    00000000    ....    DCD    0
        0x00001450:    00000000    ....    DCD    0
        0x00001454:    00000000    ....    DCD    0
        0x00001458:    00000000    ....    DCD    0
        0x0000145c:    00000000    ....    DCD    0
        0x00001460:    00000000    ....    DCD    0
        0x00001464:    00000000    ....    DCD    0
        0x00001468:    00000000    ....    DCD    0
        0x0000146c:    00000000    ....    DCD    0
        0x00001470:    00000000    ....    DCD    0
        0x00001474:    00000000    ....    DCD    0
        0x00001478:    00000000    ....    DCD    0
        0x0000147c:    00000000    ....    DCD    0
        0x00001480:    00000000    ....    DCD    0
        0x00001484:    00000000    ....    DCD    0
        0x00001488:    00000000    ....    DCD    0
        0x0000148c:    00000000    ....    DCD    0
        0x00001490:    00000000    ....    DCD    0
        0x00001494:    00000000    ....    DCD    0
        0x00001498:    00000000    ....    DCD    0
        0x0000149c:    00000000    ....    DCD    0
        0x000014a0:    00000000    ....    DCD    0
        0x000014a4:    00000000    ....    DCD    0
        0x000014a8:    00000000    ....    DCD    0
        0x000014ac:    00000000    ....    DCD    0
        0x000014b0:    00000000    ....    DCD    0
        0x000014b4:    00000000    ....    DCD    0
        0x000014b8:    00000000    ....    DCD    0
        0x000014bc:    00000000    ....    DCD    0
        0x000014c0:    00000000    ....    DCD    0
        0x000014c4:    00000000    ....    DCD    0
        0x000014c8:    00000000    ....    DCD    0
        0x000014cc:    00000000    ....    DCD    0
        0x000014d0:    00000000    ....    DCD    0
        0x000014d4:    00000000    ....    DCD    0
        0x000014d8:    00000000    ....    DCD    0
        0x000014dc:    00000000    ....    DCD    0
        0x000014e0:    00000000    ....    DCD    0
        0x000014e4:    00000000    ....    DCD    0
        0x000014e8:    00000000    ....    DCD    0
        0x000014ec:    00000000    ....    DCD    0
        0x000014f0:    00000000    ....    DCD    0
        0x000014f4:    00000000    ....    DCD    0
        0x000014f8:    00000000    ....    DCD    0
        0x000014fc:    00000000    ....    DCD    0
        0x00001500:    00000000    ....    DCD    0
        0x00001504:    00000000    ....    DCD    0
        0x00001508:    00000000    ....    DCD    0
        0x0000150c:    00000000    ....    DCD    0
        0x00001510:    00000000    ....    DCD    0
        0x00001514:    00000000    ....    DCD    0
        0x00001518:    00000000    ....    DCD    0
        0x0000151c:    00000000    ....    DCD    0
        0x00001520:    00000000    ....    DCD    0
        0x00001524:    00000000    ....    DCD    0
        0x00001528:    00000000    ....    DCD    0
        0x0000152c:    00000000    ....    DCD    0
        0x00001530:    00000000    ....    DCD    0
        0x00001534:    00000000    ....    DCD    0
        0x00001538:    00000000    ....    DCD    0
        0x0000153c:    00000000    ....    DCD    0
        0x00001540:    00000000    ....    DCD    0
        0x00001544:    00000000    ....    DCD    0
        0x00001548:    00000000    ....    DCD    0
        0x0000154c:    00000000    ....    DCD    0
        0x00001550:    00000000    ....    DCD    0
        0x00001554:    00000000    ....    DCD    0
        0x00001558:    00000000    ....    DCD    0
        0x0000155c:    00000000    ....    DCD    0
        0x00001560:    00000000    ....    DCD    0
        0x00001564:    00000000    ....    DCD    0
        0x00001568:    00000000    ....    DCD    0
        0x0000156c:    00000000    ....    DCD    0
        0x00001570:    00000000    ....    DCD    0
        0x00001574:    00000000    ....    DCD    0
        0x00001578:    00000000    ....    DCD    0
        0x0000157c:    00000000    ....    DCD    0
        0x00001580:    00000000    ....    DCD    0
        0x00001584:    00000000    ....    DCD    0
        0x00001588:    00000000    ....    DCD    0
        0x0000158c:    00000000    ....    DCD    0
        0x00001590:    00000000    ....    DCD    0
        0x00001594:    00000000    ....    DCD    0
        0x00001598:    00000000    ....    DCD    0
        0x0000159c:    00000000    ....    DCD    0
        0x000015a0:    00000000    ....    DCD    0
        0x000015a4:    00000000    ....    DCD    0
        0x000015a8:    00000000    ....    DCD    0
        0x000015ac:    00000000    ....    DCD    0
        0x000015b0:    00000000    ....    DCD    0
        0x000015b4:    00000000    ....    DCD    0
        0x000015b8:    00000000    ....    DCD    0
        0x000015bc:    00000000    ....    DCD    0
        0x000015c0:    00000000    ....    DCD    0
        0x000015c4:    00000000    ....    DCD    0
        0x000015c8:    00000000    ....    DCD    0
        0x000015cc:    00000000    ....    DCD    0
        0x000015d0:    00000000    ....    DCD    0
        0x000015d4:    00000000    ....    DCD    0
        0x000015d8:    00000000    ....    DCD    0
        0x000015dc:    00000000    ....    DCD    0
        0x000015e0:    00000000    ....    DCD    0
        0x000015e4:    00000000    ....    DCD    0
        0x000015e8:    00000000    ....    DCD    0
        0x000015ec:    00000000    ....    DCD    0
        0x000015f0:    00000000    ....    DCD    0
        0x000015f4:    00000000    ....    DCD    0
        0x000015f8:    00000000    ....    DCD    0
        0x000015fc:    00000000    ....    DCD    0
        0x00001600:    00000000    ....    DCD    0
        0x00001604:    00000000    ....    DCD    0
        0x00001608:    00000000    ....    DCD    0
        0x0000160c:    00000000    ....    DCD    0
        0x00001610:    00000000    ....    DCD    0
        0x00001614:    00000000    ....    DCD    0
        0x00001618:    00000000    ....    DCD    0
        0x0000161c:    00000000    ....    DCD    0
        0x00001620:    00000000    ....    DCD    0
        0x00001624:    00000000    ....    DCD    0
        0x00001628:    00000000    ....    DCD    0
        0x0000162c:    00000000    ....    DCD    0
        0x00001630:    00000000    ....    DCD    0
        0x00001634:    00000000    ....    DCD    0
        0x00001638:    00000000    ....    DCD    0
        0x0000163c:    00000000    ....    DCD    0
        0x00001640:    00000000    ....    DCD    0
        0x00001644:    00000000    ....    DCD    0
        0x00001648:    00000000    ....    DCD    0
        0x0000164c:    00000000    ....    DCD    0
        0x00001650:    00000000    ....    DCD    0
        0x00001654:    00000000    ....    DCD    0
        0x00001658:    00000000    ....    DCD    0
        0x0000165c:    00000000    ....    DCD    0
        0x00001660:    00000000    ....    DCD    0
        0x00001664:    00000000    ....    DCD    0
        0x00001668:    00000000    ....    DCD    0
        0x0000166c:    00000000    ....    DCD    0
        0x00001670:    00000000    ....    DCD    0
        0x00001674:    00000000    ....    DCD    0
        0x00001678:    00000000    ....    DCD    0
        0x0000167c:    00000000    ....    DCD    0
        0x00001680:    00000000    ....    DCD    0
        0x00001684:    00000000    ....    DCD    0
        0x00001688:    00000000    ....    DCD    0
        0x0000168c:    00000000    ....    DCD    0
        0x00001690:    00000000    ....    DCD    0
        0x00001694:    00000000    ....    DCD    0
        0x00001698:    00000000    ....    DCD    0
        0x0000169c:    00000000    ....    DCD    0
        0x000016a0:    00000000    ....    DCD    0
        0x000016a4:    00000000    ....    DCD    0
        0x000016a8:    00000000    ....    DCD    0
        0x000016ac:    00000000    ....    DCD    0
        0x000016b0:    00000000    ....    DCD    0
        0x000016b4:    00000000    ....    DCD    0
        0x000016b8:    00000000    ....    DCD    0
        0x000016bc:    00000000    ....    DCD    0
        0x000016c0:    00000000    ....    DCD    0
        0x000016c4:    00000000    ....    DCD    0
        0x000016c8:    00000000    ....    DCD    0
        0x000016cc:    00000000    ....    DCD    0
        0x000016d0:    00000000    ....    DCD    0
        0x000016d4:    00000000    ....    DCD    0
        0x000016d8:    00000000    ....    DCD    0
        0x000016dc:    00000000    ....    DCD    0
        0x000016e0:    00000000    ....    DCD    0
        0x000016e4:    00000000    ....    DCD    0
        0x000016e8:    00000000    ....    DCD    0
        0x000016ec:    00000000    ....    DCD    0
        0x000016f0:    00000000    ....    DCD    0
        0x000016f4:    00000000    ....    DCD    0
        0x000016f8:    00000000    ....    DCD    0
        0x000016fc:    00000000    ....    DCD    0
        0x00001700:    00000000    ....    DCD    0
        0x00001704:    00000000    ....    DCD    0
        0x00001708:    00000000    ....    DCD    0
        0x0000170c:    00000000    ....    DCD    0
        0x00001710:    00000000    ....    DCD    0
        0x00001714:    00000000    ....    DCD    0
        0x00001718:    00000000    ....    DCD    0
        0x0000171c:    00000000    ....    DCD    0
        0x00001720:    00000000    ....    DCD    0
        0x00001724:    00000000    ....    DCD    0
        0x00001728:    00000000    ....    DCD    0
        0x0000172c:    00000000    ....    DCD    0
        0x00001730:    00000000    ....    DCD    0
        0x00001734:    00000000    ....    DCD    0
        0x00001738:    00000000    ....    DCD    0
        0x0000173c:    00000000    ....    DCD    0
        0x00001740:    00000000    ....    DCD    0
        0x00001744:    00000000    ....    DCD    0
        0x00001748:    00000000    ....    DCD    0
        0x0000174c:    00000000    ....    DCD    0
        0x00001750:    00000000    ....    DCD    0
        0x00001754:    00000000    ....    DCD    0
        0x00001758:    00000000    ....    DCD    0
        0x0000175c:    00000000    ....    DCD    0
        0x00001760:    00000000    ....    DCD    0
        0x00001764:    00000000    ....    DCD    0
        0x00001768:    00000000    ....    DCD    0
        0x0000176c:    00000000    ....    DCD    0
        0x00001770:    00000000    ....    DCD    0
        0x00001774:    00000000    ....    DCD    0
        0x00001778:    00000000    ....    DCD    0
        0x0000177c:    00000000    ....    DCD    0
        0x00001780:    00000000    ....    DCD    0
        0x00001784:    00000000    ....    DCD    0
        0x00001788:    00000000    ....    DCD    0
        0x0000178c:    00000000    ....    DCD    0
        0x00001790:    00000000    ....    DCD    0
        0x00001794:    00000000    ....    DCD    0
        0x00001798:    00000000    ....    DCD    0
        0x0000179c:    00000000    ....    DCD    0
        0x000017a0:    00000000    ....    DCD    0
        0x000017a4:    00000000    ....    DCD    0
        0x000017a8:    00000000    ....    DCD    0
        0x000017ac:    00000000    ....    DCD    0
        0x000017b0:    00000000    ....    DCD    0
        0x000017b4:    00000000    ....    DCD    0
        0x000017b8:    00000000    ....    DCD    0
        0x000017bc:    00000000    ....    DCD    0
        0x000017c0:    00000000    ....    DCD    0
        0x000017c4:    00000000    ....    DCD    0
        0x000017c8:    00000000    ....    DCD    0
        0x000017cc:    00000000    ....    DCD    0
        0x000017d0:    00000000    ....    DCD    0
        0x000017d4:    00000000    ....    DCD    0
        0x000017d8:    00000000    ....    DCD    0
        0x000017dc:    00000000    ....    DCD    0
        0x000017e0:    00000000    ....    DCD    0
        0x000017e4:    00000000    ....    DCD    0
        0x000017e8:    00000000    ....    DCD    0
        0x000017ec:    00000000    ....    DCD    0
        0x000017f0:    00000000    ....    DCD    0
        0x000017f4:    00000000    ....    DCD    0
        0x000017f8:    00000000    ....    DCD    0
        0x000017fc:    00000000    ....    DCD    0
        0x00001800:    00000000    ....    DCD    0
        0x00001804:    00000000    ....    DCD    0
        0x00001808:    00000000    ....    DCD    0
        0x0000180c:    00000000    ....    DCD    0
        0x00001810:    00000000    ....    DCD    0
        0x00001814:    00000000    ....    DCD    0
        0x00001818:    00000000    ....    DCD    0
        0x0000181c:    00000000    ....    DCD    0
        0x00001820:    00000000    ....    DCD    0
        0x00001824:    00000000    ....    DCD    0
        0x00001828:    00000000    ....    DCD    0
        0x0000182c:    00000000    ....    DCD    0
        0x00001830:    00000000    ....    DCD    0
        0x00001834:    00000000    ....    DCD    0
        0x00001838:    00000000    ....    DCD    0
        0x0000183c:    00000000    ....    DCD    0
        0x00001840:    00000000    ....    DCD    0
        0x00001844:    00000000    ....    DCD    0
        0x00001848:    00000000    ....    DCD    0
        0x0000184c:    00000000    ....    DCD    0
        0x00001850:    00000000    ....    DCD    0
        0x00001854:    00000000    ....    DCD    0
        0x00001858:    00000000    ....    DCD    0
        0x0000185c:    00000000    ....    DCD    0
        0x00001860:    00000000    ....    DCD    0
        0x00001864:    00000000    ....    DCD    0
        0x00001868:    00000000    ....    DCD    0
        0x0000186c:    00000000    ....    DCD    0
        0x00001870:    00000000    ....    DCD    0
        0x00001874:    00000000    ....    DCD    0
        0x00001878:    00000000    ....    DCD    0
        0x0000187c:    00000000    ....    DCD    0
        0x00001880:    00000000    ....    DCD    0
        0x00001884:    00000000    ....    DCD    0
        0x00001888:    00000000    ....    DCD    0
        0x0000188c:    00000000    ....    DCD    0
        0x00001890:    00000000    ....    DCD    0
        0x00001894:    00000000    ....    DCD    0
        0x00001898:    00000000    ....    DCD    0
        0x0000189c:    00000000    ....    DCD    0
        0x000018a0:    00000000    ....    DCD    0
        0x000018a4:    00000000    ....    DCD    0
        0x000018a8:    00000000    ....    DCD    0
        0x000018ac:    00000000    ....    DCD    0
        0x000018b0:    00000000    ....    DCD    0
        0x000018b4:    00000000    ....    DCD    0
        0x000018b8:    00000000    ....    DCD    0
        0x000018bc:    00000000    ....    DCD    0
        0x000018c0:    00000000    ....    DCD    0
        0x000018c4:    00000000    ....    DCD    0
        0x000018c8:    00000000    ....    DCD    0
        0x000018cc:    00000000    ....    DCD    0
        0x000018d0:    00000000    ....    DCD    0
        0x000018d4:    00000000    ....    DCD    0
        0x000018d8:    00000000    ....    DCD    0
        0x000018dc:    00000000    ....    DCD    0
        0x000018e0:    00000000    ....    DCD    0
        0x000018e4:    00000000    ....    DCD    0
        0x000018e8:    00000000    ....    DCD    0
        0x000018ec:    00000000    ....    DCD    0
        0x000018f0:    00000000    ....    DCD    0
        0x000018f4:    00000000    ....    DCD    0
        0x000018f8:    00000000    ....    DCD    0
        0x000018fc:    00000000    ....    DCD    0
        0x00001900:    00000000    ....    DCD    0
        0x00001904:    00000000    ....    DCD    0
        0x00001908:    00000000    ....    DCD    0
        0x0000190c:    00000000    ....    DCD    0
        0x00001910:    00000000    ....    DCD    0
        0x00001914:    00000000    ....    DCD    0
        0x00001918:    00000000    ....    DCD    0
        0x0000191c:    00000000    ....    DCD    0
        0x00001920:    00000000    ....    DCD    0
        0x00001924:    00000000    ....    DCD    0
        0x00001928:    00000000    ....    DCD    0
        0x0000192c:    00000000    ....    DCD    0
        0x00001930:    00000000    ....    DCD    0
        0x00001934:    00000000    ....    DCD    0
        0x00001938:    00000000    ....    DCD    0
        0x0000193c:    00000000    ....    DCD    0
        0x00001940:    00000000    ....    DCD    0
        0x00001944:    00000000    ....    DCD    0
        0x00001948:    00000000    ....    DCD    0
        0x0000194c:    00000000    ....    DCD    0
        0x00001950:    00000000    ....    DCD    0
        0x00001954:    00000000    ....    DCD    0
        0x00001958:    00000000    ....    DCD    0
        0x0000195c:    00000000    ....    DCD    0
        0x00001960:    00000000    ....    DCD    0
        0x00001964:    00000000    ....    DCD    0
        0x00001968:    00000000    ....    DCD    0
        0x0000196c:    00000000    ....    DCD    0
        0x00001970:    00000000    ....    DCD    0
        0x00001974:    00000000    ....    DCD    0
        0x00001978:    00000000    ....    DCD    0
        0x0000197c:    00000000    ....    DCD    0
        0x00001980:    00000000    ....    DCD    0
        0x00001984:    00000000    ....    DCD    0
        0x00001988:    00000000    ....    DCD    0
        0x0000198c:    00000000    ....    DCD    0
        0x00001990:    00000000    ....    DCD    0
        0x00001994:    00000000    ....    DCD    0
        0x00001998:    00000000    ....    DCD    0
        0x0000199c:    00000000    ....    DCD    0
        0x000019a0:    00000000    ....    DCD    0
        0x000019a4:    00000000    ....    DCD    0
        0x000019a8:    00000000    ....    DCD    0
        0x000019ac:    00000000    ....    DCD    0
        0x000019b0:    00000000    ....    DCD    0
        0x000019b4:    00000000    ....    DCD    0
        0x000019b8:    00000000    ....    DCD    0
        0x000019bc:    00000000    ....    DCD    0
        0x000019c0:    00000000    ....    DCD    0
        0x000019c4:    00000000    ....    DCD    0
        0x000019c8:    00000000    ....    DCD    0
        0x000019cc:    00000000    ....    DCD    0
        0x000019d0:    00000000    ....    DCD    0
        0x000019d4:    00000000    ....    DCD    0
        0x000019d8:    00000000    ....    DCD    0
        0x000019dc:    00000000    ....    DCD    0
        0x000019e0:    00000000    ....    DCD    0
        0x000019e4:    00000000    ....    DCD    0
        0x000019e8:    00000000    ....    DCD    0
        0x000019ec:    00000000    ....    DCD    0
        0x000019f0:    00000000    ....    DCD    0
        0x000019f4:    00000000    ....    DCD    0
        0x000019f8:    00000000    ....    DCD    0
        0x000019fc:    00000000    ....    DCD    0
        0x00001a00:    00000000    ....    DCD    0
        0x00001a04:    00000000    ....    DCD    0
        0x00001a08:    00000000    ....    DCD    0
        0x00001a0c:    00000000    ....    DCD    0
        0x00001a10:    00000000    ....    DCD    0
        0x00001a14:    00000000    ....    DCD    0
        0x00001a18:    00000000    ....    DCD    0
        0x00001a1c:    00000000    ....    DCD    0
        0x00001a20:    00000000    ....    DCD    0
        0x00001a24:    00000000    ....    DCD    0
        0x00001a28:    00000000    ....    DCD    0
        0x00001a2c:    00000000    ....    DCD    0
        0x00001a30:    00000000    ....    DCD    0
        0x00001a34:    00000000    ....    DCD    0
        0x00001a38:    00000000    ....    DCD    0
        0x00001a3c:    00000000    ....    DCD    0
        0x00001a40:    00000000    ....    DCD    0
        0x00001a44:    00000000    ....    DCD    0
        0x00001a48:    00000000    ....    DCD    0
        0x00001a4c:    00000000    ....    DCD    0
        0x00001a50:    00000000    ....    DCD    0
        0x00001a54:    00000000    ....    DCD    0
        0x00001a58:    00000000    ....    DCD    0
        0x00001a5c:    00000000    ....    DCD    0
        0x00001a60:    00000000    ....    DCD    0
        0x00001a64:    00000000    ....    DCD    0
        0x00001a68:    00000000    ....    DCD    0
        0x00001a6c:    00000000    ....    DCD    0
        0x00001a70:    00000000    ....    DCD    0
        0x00001a74:    00000000    ....    DCD    0
        0x00001a78:    00000000    ....    DCD    0
        0x00001a7c:    00000000    ....    DCD    0
        0x00001a80:    00000000    ....    DCD    0
        0x00001a84:    00000000    ....    DCD    0
        0x00001a88:    00000000    ....    DCD    0
        0x00001a8c:    00000000    ....    DCD    0
        0x00001a90:    00000000    ....    DCD    0
        0x00001a94:    00000000    ....    DCD    0
        0x00001a98:    00000000    ....    DCD    0
        0x00001a9c:    00000000    ....    DCD    0
        0x00001aa0:    00000000    ....    DCD    0
        0x00001aa4:    00000000    ....    DCD    0
        0x00001aa8:    00000000    ....    DCD    0
        0x00001aac:    00000000    ....    DCD    0
        0x00001ab0:    00000000    ....    DCD    0
        0x00001ab4:    00000000    ....    DCD    0
        0x00001ab8:    00000000    ....    DCD    0
        0x00001abc:    00000000    ....    DCD    0
        0x00001ac0:    00000000    ....    DCD    0
        0x00001ac4:    00000000    ....    DCD    0
        0x00001ac8:    00000000    ....    DCD    0
        0x00001acc:    00000000    ....    DCD    0
        0x00001ad0:    00000000    ....    DCD    0
        0x00001ad4:    00000000    ....    DCD    0
        0x00001ad8:    00000000    ....    DCD    0
        0x00001adc:    00000000    ....    DCD    0
        0x00001ae0:    00000000    ....    DCD    0
        0x00001ae4:    00000000    ....    DCD    0
        0x00001ae8:    00000000    ....    DCD    0
        0x00001aec:    00000000    ....    DCD    0
        0x00001af0:    00000000    ....    DCD    0
        0x00001af4:    00000000    ....    DCD    0
        0x00001af8:    00000000    ....    DCD    0
        0x00001afc:    00000000    ....    DCD    0
        0x00001b00:    00000000    ....    DCD    0
        0x00001b04:    00000000    ....    DCD    0
        0x00001b08:    00000000    ....    DCD    0
        0x00001b0c:    00000000    ....    DCD    0
        0x00001b10:    00000000    ....    DCD    0
        0x00001b14:    00000000    ....    DCD    0
        0x00001b18:    00000000    ....    DCD    0
        0x00001b1c:    00000000    ....    DCD    0
        0x00001b20:    00000000    ....    DCD    0
        0x00001b24:    00000000    ....    DCD    0
        0x00001b28:    00000000    ....    DCD    0
        0x00001b2c:    00000000    ....    DCD    0
        0x00001b30:    00000000    ....    DCD    0
        0x00001b34:    00000000    ....    DCD    0
        0x00001b38:    00000000    ....    DCD    0
        0x00001b3c:    00000000    ....    DCD    0
        0x00001b40:    00000000    ....    DCD    0
        0x00001b44:    00000000    ....    DCD    0
        0x00001b48:    00000000    ....    DCD    0
        0x00001b4c:    00000000    ....    DCD    0
        0x00001b50:    00000000    ....    DCD    0
        0x00001b54:    00000000    ....    DCD    0
        0x00001b58:    00000000    ....    DCD    0
        0x00001b5c:    00000000    ....    DCD    0
        0x00001b60:    00000000    ....    DCD    0
        0x00001b64:    00000000    ....    DCD    0
        0x00001b68:    00000000    ....    DCD    0
        0x00001b6c:    00000000    ....    DCD    0
        0x00001b70:    00000000    ....    DCD    0
        0x00001b74:    00000000    ....    DCD    0
        0x00001b78:    00000000    ....    DCD    0
        0x00001b7c:    00000000    ....    DCD    0
        0x00001b80:    00000000    ....    DCD    0
        0x00001b84:    00000000    ....    DCD    0
        0x00001b88:    00000000    ....    DCD    0
        0x00001b8c:    00000000    ....    DCD    0
        0x00001b90:    00000000    ....    DCD    0
        0x00001b94:    00000000    ....    DCD    0
        0x00001b98:    00000000    ....    DCD    0
        0x00001b9c:    00000000    ....    DCD    0
        0x00001ba0:    00000000    ....    DCD    0
        0x00001ba4:    00000000    ....    DCD    0
        0x00001ba8:    00000000    ....    DCD    0
        0x00001bac:    00000000    ....    DCD    0
        0x00001bb0:    00000000    ....    DCD    0
        0x00001bb4:    00000000    ....    DCD    0
        0x00001bb8:    00000000    ....    DCD    0
        0x00001bbc:    00000000    ....    DCD    0
        0x00001bc0:    00000000    ....    DCD    0
        0x00001bc4:    00000000    ....    DCD    0
        0x00001bc8:    00000000    ....    DCD    0
        0x00001bcc:    00000000    ....    DCD    0
        0x00001bd0:    00000000    ....    DCD    0
        0x00001bd4:    00000000    ....    DCD    0
        0x00001bd8:    00000000    ....    DCD    0
        0x00001bdc:    00000000    ....    DCD    0
        0x00001be0:    00000000    ....    DCD    0
        0x00001be4:    00000000    ....    DCD    0
        0x00001be8:    00000000    ....    DCD    0
        0x00001bec:    00000000    ....    DCD    0
        0x00001bf0:    00000000    ....    DCD    0
        0x00001bf4:    00000000    ....    DCD    0
        0x00001bf8:    00000000    ....    DCD    0
        0x00001bfc:    00000000    ....    DCD    0
        0x00001c00:    00000000    ....    DCD    0
        0x00001c04:    00000000    ....    DCD    0
        0x00001c08:    00000000    ....    DCD    0
        0x00001c0c:    00000000    ....    DCD    0
        0x00001c10:    00000000    ....    DCD    0
        0x00001c14:    00000000    ....    DCD    0
        0x00001c18:    00000000    ....    DCD    0
        0x00001c1c:    00000000    ....    DCD    0
        0x00001c20:    00000000    ....    DCD    0
        0x00001c24:    00000000    ....    DCD    0
        0x00001c28:    00000000    ....    DCD    0
        0x00001c2c:    00000000    ....    DCD    0
        0x00001c30:    00000000    ....    DCD    0
        0x00001c34:    00000000    ....    DCD    0
        0x00001c38:    00000000    ....    DCD    0
        0x00001c3c:    00000000    ....    DCD    0
        0x00001c40:    00000000    ....    DCD    0
        0x00001c44:    00000000    ....    DCD    0
        0x00001c48:    00000000    ....    DCD    0
        0x00001c4c:    00000000    ....    DCD    0
        0x00001c50:    00000000    ....    DCD    0
        0x00001c54:    00000000    ....    DCD    0
        0x00001c58:    00000000    ....    DCD    0
        0x00001c5c:    00000000    ....    DCD    0
        0x00001c60:    00000000    ....    DCD    0
        0x00001c64:    00000000    ....    DCD    0
        0x00001c68:    00000000    ....    DCD    0
        0x00001c6c:    00000000    ....    DCD    0
        0x00001c70:    00000000    ....    DCD    0
        0x00001c74:    00000000    ....    DCD    0
        0x00001c78:    00000000    ....    DCD    0
        0x00001c7c:    00000000    ....    DCD    0
        0x00001c80:    00000000    ....    DCD    0
        0x00001c84:    00000000    ....    DCD    0
        0x00001c88:    00000000    ....    DCD    0
        0x00001c8c:    00000000    ....    DCD    0
        0x00001c90:    00000000    ....    DCD    0
        0x00001c94:    00000000    ....    DCD    0
        0x00001c98:    00000000    ....    DCD    0
        0x00001c9c:    00000000    ....    DCD    0
        0x00001ca0:    00000000    ....    DCD    0
        0x00001ca4:    00000000    ....    DCD    0
        0x00001ca8:    00000000    ....    DCD    0
        0x00001cac:    00000000    ....    DCD    0
        0x00001cb0:    00000000    ....    DCD    0
        0x00001cb4:    00000000    ....    DCD    0
        0x00001cb8:    00000000    ....    DCD    0
        0x00001cbc:    00000000    ....    DCD    0
        0x00001cc0:    00000000    ....    DCD    0
        0x00001cc4:    00000000    ....    DCD    0
        0x00001cc8:    00000000    ....    DCD    0
        0x00001ccc:    00000000    ....    DCD    0
        0x00001cd0:    00000000    ....    DCD    0
        0x00001cd4:    00000000    ....    DCD    0
        0x00001cd8:    00000000    ....    DCD    0
        0x00001cdc:    00000000    ....    DCD    0
        0x00001ce0:    00000000    ....    DCD    0
        0x00001ce4:    00000000    ....    DCD    0
        0x00001ce8:    00000000    ....    DCD    0
        0x00001cec:    00000000    ....    DCD    0
        0x00001cf0:    00000000    ....    DCD    0
        0x00001cf4:    00000000    ....    DCD    0
        0x00001cf8:    00000000    ....    DCD    0
        0x00001cfc:    00000000    ....    DCD    0
        0x00001d00:    00000000    ....    DCD    0
        0x00001d04:    00000000    ....    DCD    0
        0x00001d08:    00000000    ....    DCD    0
        0x00001d0c:    00000000    ....    DCD    0
        0x00001d10:    00000000    ....    DCD    0
        0x00001d14:    00000000    ....    DCD    0
        0x00001d18:    00000000    ....    DCD    0
        0x00001d1c:    00000000    ....    DCD    0
        0x00001d20:    00000000    ....    DCD    0
        0x00001d24:    00000000    ....    DCD    0
        0x00001d28:    00000000    ....    DCD    0
        0x00001d2c:    00000000    ....    DCD    0
        0x00001d30:    00000000    ....    DCD    0
        0x00001d34:    00000000    ....    DCD    0
        0x00001d38:    00000000    ....    DCD    0
        0x00001d3c:    00000000    ....    DCD    0
        0x00001d40:    00000000    ....    DCD    0
        0x00001d44:    00000000    ....    DCD    0
        0x00001d48:    00000000    ....    DCD    0
        0x00001d4c:    00000000    ....    DCD    0
        0x00001d50:    00000000    ....    DCD    0
        0x00001d54:    00000000    ....    DCD    0
        0x00001d58:    00000000    ....    DCD    0
        0x00001d5c:    00000000    ....    DCD    0
        0x00001d60:    00000000    ....    DCD    0
        0x00001d64:    00000000    ....    DCD    0
        0x00001d68:    00000000    ....    DCD    0
        0x00001d6c:    00000000    ....    DCD    0
        0x00001d70:    00000000    ....    DCD    0
        0x00001d74:    00000000    ....    DCD    0
        0x00001d78:    00000000    ....    DCD    0
        0x00001d7c:    00000000    ....    DCD    0
        0x00001d80:    00000000    ....    DCD    0
        0x00001d84:    00000000    ....    DCD    0
        0x00001d88:    00000000    ....    DCD    0
        0x00001d8c:    00000000    ....    DCD    0
        0x00001d90:    00000000    ....    DCD    0
        0x00001d94:    00000000    ....    DCD    0
        0x00001d98:    00000000    ....    DCD    0
        0x00001d9c:    00000000    ....    DCD    0
        0x00001da0:    00000000    ....    DCD    0
        0x00001da4:    00000000    ....    DCD    0
        0x00001da8:    00000000    ....    DCD    0
        0x00001dac:    00000000    ....    DCD    0
        0x00001db0:    00000000    ....    DCD    0
        0x00001db4:    00000000    ....    DCD    0
        0x00001db8:    00000000    ....    DCD    0
        0x00001dbc:    00000000    ....    DCD    0
        0x00001dc0:    00000000    ....    DCD    0
        0x00001dc4:    00000000    ....    DCD    0
        0x00001dc8:    00000000    ....    DCD    0
        0x00001dcc:    00000000    ....    DCD    0
        0x00001dd0:    00000000    ....    DCD    0
        0x00001dd4:    00000000    ....    DCD    0
        0x00001dd8:    00000000    ....    DCD    0
        0x00001ddc:    00000000    ....    DCD    0
        0x00001de0:    00000000    ....    DCD    0
        0x00001de4:    00000000    ....    DCD    0
        0x00001de8:    00000000    ....    DCD    0
        0x00001dec:    00000000    ....    DCD    0
        0x00001df0:    00000000    ....    DCD    0
        0x00001df4:    00000000    ....    DCD    0
        0x00001df8:    00000000    ....    DCD    0
        0x00001dfc:    00000000    ....    DCD    0
        0x00001e00:    00000000    ....    DCD    0
        0x00001e04:    00000000    ....    DCD    0
        0x00001e08:    00000000    ....    DCD    0
        0x00001e0c:    00000000    ....    DCD    0
        0x00001e10:    00000000    ....    DCD    0
        0x00001e14:    00000000    ....    DCD    0
        0x00001e18:    00000000    ....    DCD    0
        0x00001e1c:    00000000    ....    DCD    0
        0x00001e20:    00000000    ....    DCD    0
        0x00001e24:    00000000    ....    DCD    0
        0x00001e28:    00000000    ....    DCD    0
        0x00001e2c:    00000000    ....    DCD    0
        0x00001e30:    00000000    ....    DCD    0
        0x00001e34:    00000000    ....    DCD    0
        0x00001e38:    00000000    ....    DCD    0
        0x00001e3c:    00000000    ....    DCD    0
        0x00001e40:    00000000    ....    DCD    0
        0x00001e44:    00000000    ....    DCD    0
        0x00001e48:    00000000    ....    DCD    0
        0x00001e4c:    00000000    ....    DCD    0
        0x00001e50:    00000000    ....    DCD    0
        0x00001e54:    00000000    ....    DCD    0
        0x00001e58:    00000000    ....    DCD    0
        0x00001e5c:    00000000    ....    DCD    0
        0x00001e60:    00000000    ....    DCD    0
        0x00001e64:    00000000    ....    DCD    0
        0x00001e68:    00000000    ....    DCD    0
        0x00001e6c:    00000000    ....    DCD    0
        0x00001e70:    00000000    ....    DCD    0
        0x00001e74:    00000000    ....    DCD    0
        0x00001e78:    00000000    ....    DCD    0
        0x00001e7c:    00000000    ....    DCD    0
        0x00001e80:    00000000    ....    DCD    0
        0x00001e84:    00000000    ....    DCD    0
        0x00001e88:    00000000    ....    DCD    0
        0x00001e8c:    00000000    ....    DCD    0
        0x00001e90:    00000000    ....    DCD    0
        0x00001e94:    00000000    ....    DCD    0
        0x00001e98:    00000000    ....    DCD    0
        0x00001e9c:    00000000    ....    DCD    0
        0x00001ea0:    00000000    ....    DCD    0
        0x00001ea4:    00000000    ....    DCD    0
        0x00001ea8:    00000000    ....    DCD    0
        0x00001eac:    00000000    ....    DCD    0
        0x00001eb0:    00000000    ....    DCD    0
        0x00001eb4:    00000000    ....    DCD    0
        0x00001eb8:    00000000    ....    DCD    0
        0x00001ebc:    00000000    ....    DCD    0
        0x00001ec0:    00000000    ....    DCD    0
        0x00001ec4:    00000000    ....    DCD    0
        0x00001ec8:    00000000    ....    DCD    0
        0x00001ecc:    00000000    ....    DCD    0
        0x00001ed0:    00000000    ....    DCD    0
        0x00001ed4:    00000000    ....    DCD    0
        0x00001ed8:    00000000    ....    DCD    0
        0x00001edc:    00000000    ....    DCD    0
        0x00001ee0:    00000000    ....    DCD    0
        0x00001ee4:    00000000    ....    DCD    0
        0x00001ee8:    00000000    ....    DCD    0

** Section #4 '.debug_abbrev' (SHT_PROGBITS)
    Size   : 2161 bytes


** Section #5 '.debug_frame' (SHT_PROGBITS)
    Size   : 1112 bytes


** Section #6 '.debug_info' (SHT_PROGBITS)
    Size   : 10682 bytes


** Section #7 '.debug_line' (SHT_PROGBITS)
    Size   : 3928 bytes


** Section #8 '.debug_loc' (SHT_PROGBITS)
    Size   : 2762 bytes


** Section #9 '.debug_str' (SHT_PROGBITS)
    Size   : 5979 bytes


** Section #10 '.debug_ranges' (SHT_PROGBITS)
    Size   : 48 bytes


** Section #11 '.symtab' (SHT_SYMTAB)
    Size   : 1152 bytes (alignment 4)
    String table #12 '.strtab'
    Last local symbol no. 15


** Section #12 '.strtab' (SHT_STRTAB)
    Size   : 1040 bytes


** Section #13 '.note' (SHT_NOTE)
    Size   : 28 bytes (alignment 4)


** Section #14 '.comment' (SHT_PROGBITS)
    Size   : 520 bytes


** Section #15 '.shstrtab' (SHT_STRTAB)
    Size   : 156 bytes


address     size       variable name                            type
0x00000e44  0x4        CyclesPerUs                              uint32_t

address     size       variable name                            type
0x00000e48  0x4        SystemCoreClock                          uint32_t

address     size       variable name                            type
0x00000e30  0x4        IAP_Cache_Reset                          const IAP_Cache_Reset_t

address     size       variable name                            type
0x00000e34  0x4        IAP_Flash_Erase                          const IAP_Flash_Erase_t

address     size       variable name                            type
0x00000e38  0x4        IAP_Flash_Param                          const IAP_Flash_Param_t

address     size       variable name                            type
0x00000e3c  0x4        IAP_Flash_Write                          const IAP_Flash_Write_t

address     size       variable name                            type
0x00000e4c  0x10a0     FlashDevice                              const FlashDevice
0x00000e4c  0x2        FlashDevice.Vers                         unsigned short
0x00000e4e  0x80       FlashDevice.DevName                      array[128] of char
0x00000ece  0x2        FlashDevice.DevType                      unsigned short
0x00000ed0  0x4        FlashDevice.DevAdr                       long unsigned int
0x00000ed4  0x4        FlashDevice.szDev                        long unsigned int
0x00000ed8  0x4        FlashDevice.szPage                       long unsigned int
0x00000edc  0x4        FlashDevice.Res                          long unsigned int
0x00000ee0  0x1      * FlashDevice.valEmpty                     unsigned char
0x00000ee4  0x4        FlashDevice.toProg                       long unsigned int
0x00000ee8  0x4        FlashDevice.toErase                      long unsigned int
0x00000eec  0x1000     FlashDevice.sectors                      array[512] of FlashSectors

