
========================================================================

** ELF Header Information

    File Name: D:\synwit_doc\Support\标准库文件\下载算法\SWM341_MDK_SFC\out\SWM341_SFC.axf

    Machine class: ELFCLASS32 (32-bit)
    Data encoding: ELFDATA2LSB (Little endian)
    Header version: EV_CURRENT (Current version)
    Operating System ABI: none
    ABI Version: 0
    File Type: ET_EXEC (Executable) (2)
    Machine: EM_ARM (ARM)

    Image Entry point: Not specified
    Flags: EF_ARM_ABI_FLOAT_SOFT (0x05000200)

    ARM ELF revision: 5 (ABI version 2)

    Conforms to Soft float procedure-call standard

    Built with
    Component: ARM Compiler 6.16 Tool: armlink [5dfeaa00]

    Header size: 52 bytes (0x34)
    Program header entry size: 32 bytes (0x20)
    Section header entry size: 40 bytes (0x28)

    Program header entries: 2
    Section header entries: 16

    Program header offset: 35776 (0x00008bc0)
    Section header offset: 35840 (0x00008c00)

    Section header string table index: 15

========================================================================

** Program header #0 (PT_LOAD) [PF_X + PF_W + PF_R + PF_ARM_SB + PF_ARM_PI]
    Size : 3304 bytes
    Virtual address: 0x00000000 (Alignment 4)


====================================

** Program header #1 (PT_LOAD) [PF_X + PF_R + PF_ARM_PI]
    Size : 4256 bytes
    Virtual address: 0x00000ce8 (Alignment 4)


========================================================================

** Section #1 'PrgCode' (SHT_PROGBITS) [SHF_ALLOC + SHF_EXECINSTR]
    Size   : 3292 bytes (alignment 4)
    Address: 0x00000000

    $t.0
    Init
        0x00000000:    2a01        .*      CMP      r2,#1
        0x00000002:    d16f        o.      BNE      0xe4 ; Init + 228
        0x00000004:    b5b0        ..      PUSH     {r4,r5,r7,lr}
        0x00000006:    b082        ..      SUB      sp,sp,#8
        0x00000008:    f24e1080    N...    MOV      r0,#0xe180
        0x0000000c:    f3ef8210    ....    MRS      r2,PRIMASK
        0x00000010:    b672        r.      CPSID    i
        0x00000012:    f2ce0000    ....    MOVT     r0,#0xe000
        0x00000016:    f04f31ff    O..1    MOV      r1,#0xffffffff
        0x0000001a:    6001        .`      STR      r1,[r0,#0]
        0x0000001c:    6041        A`      STR      r1,[r0,#4]
        0x0000001e:    6081        .`      STR      r1,[r0,#8]
        0x00000020:    2008        .       MOVS     r0,#8
        0x00000022:    f2c40000    ....    MOVT     r0,#0x4000
        0x00000026:    2255        U"      MOVS     r2,#0x55
        0x00000028:    f8c02718    ...'    STR      r2,[r0,#0x718]
        0x0000002c:    f2407224    @.$r    MOV      r2,#0x724
        0x00000030:    f2c40200    ....    MOVT     r2,#0x4000
        0x00000034:    6011        .`      STR      r1,[r2,#0]
        0x00000036:    6051        Q`      STR      r1,[r2,#4]
        0x00000038:    f3bf8f4f    ..O.    DSB      
        0x0000003c:    f3bf8f6f    ..o.    ISB      
        0x00000040:    bf00        ..      NOP      
        0x00000042:    2100        .!      MOVS     r1,#0
        0x00000044:    bf00        ..      NOP      
        0x00000046:    6011        .`      STR      r1,[r2,#0]
        0x00000048:    6051        Q`      STR      r1,[r2,#4]
        0x0000004a:    f8c01718    ....    STR      r1,[r0,#0x718]
        0x0000004e:    6801        .h      LDR      r1,[r0,#0]
        0x00000050:    2430        0$      MOVS     r4,#0x30
        0x00000052:    f0417100    A..q    ORR      r1,r1,#0x2000000
        0x00000056:    6001        .`      STR      r1,[r0,#0]
        0x00000058:    f24a0000    J...    MOVW     r0,#0xa000
        0x0000005c:    f2c4000a    ....    MOVT     r0,#0x400a
        0x00000060:    6801        .h      LDR      r1,[r0,#0]
        0x00000062:    f2c4040a    ....    MOVT     r4,#0x400a
        0x00000066:    f0410102    A...    ORR      r1,r1,#2
        0x0000006a:    6001        .`      STR      r1,[r0,#0]
        0x0000006c:    f2400004    @...    MOVW     r0,#4
        0x00000070:    f2c00000    ....    MOVT     r0,#0
        0x00000074:    2128        (!      MOVS     r1,#0x28
        0x00000076:    f8491000    I...    STR      r1,[r9,r0]
        0x0000007a:    4620         F      MOV      r0,r4
        0x0000007c:    2105        .!      MOVS     r1,#5
        0x0000007e:    2201        ."      MOVS     r2,#1
        0x00000080:    2300        .#      MOVS     r3,#0
        0x00000082:    2501        .%      MOVS     r5,#1
        0x00000084:    f000f8a4    ....    BL       PORT_Init ; 0x1d0
        0x00000088:    4620         F      MOV      r0,r4
        0x0000008a:    2106        .!      MOVS     r1,#6
        0x0000008c:    2201        ."      MOVS     r2,#1
        0x0000008e:    2300        .#      MOVS     r3,#0
        0x00000090:    f000f89e    ....    BL       PORT_Init ; 0x1d0
        0x00000094:    4620         F      MOV      r0,r4
        0x00000096:    2108        .!      MOVS     r1,#8
        0x00000098:    2202        ."      MOVS     r2,#2
        0x0000009a:    2301        .#      MOVS     r3,#1
        0x0000009c:    f000f898    ....    BL       PORT_Init ; 0x1d0
        0x000000a0:    4620         F      MOV      r0,r4
        0x000000a2:    2107        .!      MOVS     r1,#7
        0x000000a4:    2203        ."      MOVS     r2,#3
        0x000000a6:    2301        .#      MOVS     r3,#1
        0x000000a8:    f000f892    ....    BL       PORT_Init ; 0x1d0
        0x000000ac:    4620         F      MOV      r0,r4
        0x000000ae:    2103        .!      MOVS     r1,#3
        0x000000b0:    2202        ."      MOVS     r2,#2
        0x000000b2:    2301        .#      MOVS     r3,#1
        0x000000b4:    f000f88c    ....    BL       PORT_Init ; 0x1d0
        0x000000b8:    4620         F      MOV      r0,r4
        0x000000ba:    2104        .!      MOVS     r1,#4
        0x000000bc:    2202        ."      MOVS     r2,#2
        0x000000be:    2301        .#      MOVS     r3,#1
        0x000000c0:    f000f886    ....    BL       PORT_Init ; 0x1d0
        0x000000c4:    f64e3001    N..0    MOV      r0,#0xeb01
        0x000000c8:    f2c32002    ...     MOVT     r0,#0x3202
        0x000000cc:    9000        ..      STR      r0,[sp,#0]
        0x000000ce:    4668        hF      MOV      r0,sp
        0x000000d0:    f88d5004    ...P    STRB     r5,[sp,#4]
        0x000000d4:    f000f9e8    ....    BL       SFC_Init ; 0x4a8
        0x000000d8:    2001        .       MOVS     r0,#1
        0x000000da:    f000fad7    ....    BL       SFC_QuadSwitch ; 0x68c
        0x000000de:    b002        ..      ADD      sp,sp,#8
        0x000000e0:    e8bd40b0    ...@    POP      {r4,r5,r7,lr}
        0x000000e4:    2000        .       MOVS     r0,#0
        0x000000e6:    4770        pG      BX       lr
    UnInit
        0x000000e8:    2000        .       MOVS     r0,#0
        0x000000ea:    4770        pG      BX       lr
    EraseSector
        0x000000ec:    f1004010    ...@    ADD      r0,r0,#0x90000000
        0x000000f0:    f1b07f80    ....    CMP      r0,#0x1000000
        0x000000f4:    bf84        ..      ITT      HI
        0x000000f6:    2001        .       MOVHI    r0,#1
        0x000000f8:    4770        pG      BXHI     lr
        0x000000fa:    b580        ..      PUSH     {r7,lr}
        0x000000fc:    f000fa30    ..0.    BL       SFC_Erase ; 0x560
        0x00000100:    2000        .       MOVS     r0,#0
        0x00000102:    bd80        ..      POP      {r7,pc}
    ProgramPage
        0x00000104:    f1004010    ...@    ADD      r0,r0,#0x90000000
        0x00000108:    f1b07f80    ....    CMP      r0,#0x1000000
        0x0000010c:    bf84        ..      ITT      HI
        0x0000010e:    2001        .       MOVHI    r0,#1
        0x00000110:    4770        pG      BXHI     lr
        0x00000112:    b580        ..      PUSH     {r7,lr}
        0x00000114:    3103        .1      ADDS     r1,#3
        0x00000116:    088b        ..      LSRS     r3,r1,#2
        0x00000118:    4611        .F      MOV      r1,r2
        0x0000011a:    461a        .F      MOV      r2,r3
        0x0000011c:    f000fa4c    ..L.    BL       SFC_Write ; 0x5b8
        0x00000120:    2000        .       MOVS     r0,#0
        0x00000122:    bd80        ..      POP      {r7,pc}
    BlankCheck
        0x00000124:    b580        ..      PUSH     {r7,lr}
        0x00000126:    4686        .F      MOV      lr,r0
        0x00000128:    f1004010    ...@    ADD      r0,r0,#0x90000000
        0x0000012c:    f1b07f80    ....    CMP      r0,#0x1000000
        0x00000130:    bf84        ..      ITT      HI
        0x00000132:    2001        .       MOVHI    r0,#1
        0x00000134:    bd80        ..      POPHI    {r7,pc}
        0x00000136:    2900        .)      CMP      r1,#0
        0x00000138:    4608        .F      MOV      r0,r1
        0x0000013a:    bf18        ..      IT       NE
        0x0000013c:    2001        .       MOVNE    r0,#1
        0x0000013e:    d016        ..      BEQ      0x16e ; BlankCheck + 74
        0x00000140:    ea424302    B..C    ORR      r3,r2,r2,LSL #16
        0x00000144:    ea436302    C..c    ORR      r3,r3,r2,LSL #24
        0x00000148:    ea432c02    C..,    ORR      r12,r3,r2,LSL #8
        0x0000014c:    f8de2000    ...     LDR      r2,[lr,#0]
        0x00000150:    4562        bE      CMP      r2,r12
        0x00000152:    d10c        ..      BNE      0x16e ; BlankCheck + 74
        0x00000154:    2204        ."      MOVS     r2,#4
        0x00000156:    bf00        ..      NOP      
        0x00000158:    428a        .B      CMP      r2,r1
        0x0000015a:    f04f0000    O...    MOV      r0,#0
        0x0000015e:    bf34        4.      ITE      CC
        0x00000160:    2001        .       MOVCC    r0,#1
        0x00000162:    bd80        ..      POPCS    {r7,pc}
        0x00000164:    f85e3002    ^..0    LDR      r3,[lr,r2]
        0x00000168:    3204        .2      ADDS     r2,#4
        0x0000016a:    4563        cE      CMP      r3,r12
        0x0000016c:    d0f4        ..      BEQ      0x158 ; BlankCheck + 52
        0x0000016e:    bd80        ..      POP      {r7,pc}
    Verify
        0x00000170:    f1004310    ...C    ADD      r3,r0,#0x90000000
        0x00000174:    f1b37f80    ....    CMP      r3,#0x1000000
        0x00000178:    bf88        ..      IT       HI
        0x0000017a:    4770        pG      BXHI     lr
        0x0000017c:    b5b0        ..      PUSH     {r4,r5,r7,lr}
        0x0000017e:    2900        .)      CMP      r1,#0
        0x00000180:    460c        .F      MOV      r4,r1
        0x00000182:    bf18        ..      IT       NE
        0x00000184:    2401        .$      MOVNE    r4,#1
        0x00000186:    d01b        ..      BEQ      0x1c0 ; Verify + 80
        0x00000188:    f8d0c000    ....    LDR      r12,[r0,#0]
        0x0000018c:    6813        .h      LDR      r3,[r2,#0]
        0x0000018e:    459c        .E      CMP      r12,r3
        0x00000190:    4684        .F      MOV      r12,r0
        0x00000192:    d117        ..      BNE      0x1c4 ; Verify + 84
        0x00000194:    f04f0c00    O...    MOV      r12,#0
        0x00000198:    f10c0e04    ....    ADD      lr,r12,#4
        0x0000019c:    458e        .E      CMP      lr,r1
        0x0000019e:    f04f0400    O...    MOV      r4,#0
        0x000001a2:    bf38        8.      IT       CC
        0x000001a4:    2401        .$      MOVCC    r4,#1
        0x000001a6:    d20c        ..      BCS      0x1c2 ; Verify + 82
        0x000001a8:    eb00030c    ....    ADD      r3,r0,r12
        0x000001ac:    685d        ]h      LDR      r5,[r3,#4]
        0x000001ae:    eb02030c    ....    ADD      r3,r2,r12
        0x000001b2:    685b        [h      LDR      r3,[r3,#4]
        0x000001b4:    46f4        .F      MOV      r12,lr
        0x000001b6:    429d        .B      CMP      r5,r3
        0x000001b8:    d0ee        ..      BEQ      0x198 ; Verify + 40
        0x000001ba:    eb000c0e    ....    ADD      r12,r0,lr
        0x000001be:    e001        ..      B        0x1c4 ; Verify + 84
        0x000001c0:    e000        ..      B        0x1c4 ; Verify + 84
        0x000001c2:    4484        .D      ADD      r12,r12,r0
        0x000001c4:    2c00        .,      CMP      r4,#0
        0x000001c6:    bf08        ..      IT       EQ
        0x000001c8:    eb010c00    ....    ADDEQ    r12,r1,r0
        0x000001cc:    4660        `F      MOV      r0,r12
        0x000001ce:    bdb0        ..      POP      {r4,r5,r7,pc}
    PORT_Init
        0x000001d0:    b570        p.      PUSH     {r4-r6,lr}
        0x000001d2:    f06f0c1f    o...    MVN      r12,#0x1f
        0x000001d6:    eb0c0c81    ....    ADD      r12,r12,r1,LSL #2
        0x000001da:    4604        .F      MOV      r4,r0
        0x000001dc:    2908        .)      CMP      r1,#8
        0x000001de:    bf38        8.      IT       CC
        0x000001e0:    ea4f0c81    O...    LSLCC    r12,r1,#2
        0x000001e4:    f04f0e0f    O...    MOV      lr,#0xf
        0x000001e8:    bf28        (.      IT       CS
        0x000001ea:    3404        .4      ADDCS    r4,#4
        0x000001ec:    6826        &h      LDR      r6,[r4,#0]
        0x000001ee:    fa0ef50c    ....    LSL      r5,lr,r12
        0x000001f2:    43ae        .C      BICS     r6,r6,r5
        0x000001f4:    6026        &`      STR      r6,[r4,#0]
        0x000001f6:    6826        &h      LDR      r6,[r4,#0]
        0x000001f8:    fa02f20c    ....    LSL      r2,r2,r12
        0x000001fc:    4332        2C      ORRS     r2,r2,r6
        0x000001fe:    6022        "`      STR      r2,[r4,#0]
        0x00000200:    2201        ."      MOVS     r2,#1
        0x00000202:    fa02f101    ....    LSL      r1,r2,r1
        0x00000206:    2b00        .+      CMP      r3,#0
        0x00000208:    f8d02300    ...#    LDR      r2,[r0,#0x300]
        0x0000020c:    bf0c        ..      ITE      EQ
        0x0000020e:    ea220101    "...    BICEQ    r1,r2,r1
        0x00000212:    4311        .C      ORRNE    r1,r1,r2
        0x00000214:    f8c01300    ....    STR      r1,[r0,#0x300]
        0x00000218:    bd70        p.      POP      {r4-r6,pc}
        0x0000021a:    0000        ..      MOVS     r0,r0
    GPIO_Init
        0x0000021c:    e92d45f0    -..E    PUSH     {r4-r8,r10,lr}
        0x00000220:    b081        ..      SUB      sp,sp,#4
        0x00000222:    4607        .F      MOV      r7,r0
        0x00000224:    f24070ff    @..p    MOV      r0,#0x7ff
        0x00000228:    f2c40004    ....    MOVT     r0,#0x4004
        0x0000022c:    2400        .$      MOVS     r4,#0
        0x0000022e:    4698        .F      MOV      r8,r3
        0x00000230:    4692        .F      MOV      r10,r2
        0x00000232:    4287        .B      CMP      r7,r0
        0x00000234:    460d        .F      MOV      r5,r1
        0x00000236:    f2c4040a    ....    MOVT     r4,#0x400a
        0x0000023a:    dd1a        ..      BLE      0x272 ; GPIO_Init + 86
        0x0000023c:    f24170ff    A..p    MOV      r0,#0x17ff
        0x00000240:    f2c40004    ....    MOVT     r0,#0x4004
        0x00000244:    4287        .B      CMP      r7,r0
        0x00000246:    dc2a        *.      BGT      0x29e ; GPIO_Init + 130
        0x00000248:    f6400000    @...    MOVW     r0,#0x800
        0x0000024c:    f2c40004    ....    MOVT     r0,#0x4004
        0x00000250:    4287        .B      CMP      r7,r0
        0x00000252:    d039        9.      BEQ      0x2c8 ; GPIO_Init + 172
        0x00000254:    f2410000    A...    MOVW     r0,#0x1000
        0x00000258:    f2c40004    ....    MOVT     r0,#0x4004
        0x0000025c:    4287        .B      CMP      r7,r0
        0x0000025e:    d156        V.      BNE      0x30e ; GPIO_Init + 242
        0x00000260:    2008        .       MOVS     r0,#8
        0x00000262:    f2c40000    ....    MOVT     r0,#0x4000
        0x00000266:    6801        .h      LDR      r1,[r0,#0]
        0x00000268:    3420         4      ADDS     r4,r4,#0x20
        0x0000026a:    f0410104    A...    ORR      r1,r1,#4
        0x0000026e:    6001        .`      STR      r1,[r0,#0]
        0x00000270:    e04d        M.      B        0x30e ; GPIO_Init + 242
        0x00000272:    f1b72f40    ..@/    CMP      r7,#0x40004000
        0x00000276:    d030        0.      BEQ      0x2da ; GPIO_Init + 190
        0x00000278:    f6440000    D...    MOVW     r0,#0x4800
        0x0000027c:    f2c40000    ....    MOVT     r0,#0x4000
        0x00000280:    4287        .B      CMP      r7,r0
        0x00000282:    d03c        <.      BEQ      0x2fe ; GPIO_Init + 226
        0x00000284:    2000        .       MOVS     r0,#0
        0x00000286:    f2c40004    ....    MOVT     r0,#0x4004
        0x0000028a:    4287        .B      CMP      r7,r0
        0x0000028c:    d13f        ?.      BNE      0x30e ; GPIO_Init + 242
        0x0000028e:    2008        .       MOVS     r0,#8
        0x00000290:    f2c40000    ....    MOVT     r0,#0x4000
        0x00000294:    6801        .h      LDR      r1,[r0,#0]
        0x00000296:    f0410101    A...    ORR      r1,r1,#1
        0x0000029a:    6001        .`      STR      r1,[r0,#0]
        0x0000029c:    e037        7.      B        0x30e ; GPIO_Init + 242
        0x0000029e:    f6410000    A...    MOVW     r0,#0x1800
        0x000002a2:    f2c40004    ....    MOVT     r0,#0x4004
        0x000002a6:    4287        .B      CMP      r7,r0
        0x000002a8:    d020         .      BEQ      0x2ec ; GPIO_Init + 208
        0x000002aa:    f2410000    A...    MOVW     r0,#0x1000
        0x000002ae:    f2c4000a    ....    MOVT     r0,#0x400a
        0x000002b2:    4287        .B      CMP      r7,r0
        0x000002b4:    d12b        +.      BNE      0x30e ; GPIO_Init + 242
        0x000002b6:    2008        .       MOVS     r0,#8
        0x000002b8:    f2c40000    ....    MOVT     r0,#0x4000
        0x000002bc:    6841        Ah      LDR      r1,[r0,#4]
        0x000002be:    3440        @4      ADDS     r4,r4,#0x40
        0x000002c0:    f0410101    A...    ORR      r1,r1,#1
        0x000002c4:    6041        A`      STR      r1,[r0,#4]
        0x000002c6:    e022        ".      B        0x30e ; GPIO_Init + 242
        0x000002c8:    2008        .       MOVS     r0,#8
        0x000002ca:    f2c40000    ....    MOVT     r0,#0x4000
        0x000002ce:    6801        .h      LDR      r1,[r0,#0]
        0x000002d0:    3410        .4      ADDS     r4,r4,#0x10
        0x000002d2:    f0410102    A...    ORR      r1,r1,#2
        0x000002d6:    6001        .`      STR      r1,[r0,#0]
        0x000002d8:    e019        ..      B        0x30e ; GPIO_Init + 242
        0x000002da:    2008        .       MOVS     r0,#8
        0x000002dc:    f2c40000    ....    MOVT     r0,#0x4000
        0x000002e0:    6801        .h      LDR      r1,[r0,#0]
        0x000002e2:    3480        .4      ADDS     r4,r4,#0x80
        0x000002e4:    f0410110    A...    ORR      r1,r1,#0x10
        0x000002e8:    6001        .`      STR      r1,[r0,#0]
        0x000002ea:    e010        ..      B        0x30e ; GPIO_Init + 242
        0x000002ec:    2008        .       MOVS     r0,#8
        0x000002ee:    f2c40000    ....    MOVT     r0,#0x4000
        0x000002f2:    6801        .h      LDR      r1,[r0,#0]
        0x000002f4:    3430        04      ADDS     r4,r4,#0x30
        0x000002f6:    f0410108    A...    ORR      r1,r1,#8
        0x000002fa:    6001        .`      STR      r1,[r0,#0]
        0x000002fc:    e007        ..      B        0x30e ; GPIO_Init + 242
        0x000002fe:    2008        .       MOVS     r0,#8
        0x00000300:    f2c40000    ....    MOVT     r0,#0x4000
        0x00000304:    6801        .h      LDR      r1,[r0,#0]
        0x00000306:    3490        .4      ADDS     r4,r4,#0x90
        0x00000308:    f0410120    A. .    ORR      r1,r1,#0x20
        0x0000030c:    6001        .`      STR      r1,[r0,#0]
        0x0000030e:    4620         F      MOV      r0,r4
        0x00000310:    4629        )F      MOV      r1,r5
        0x00000312:    2200        ."      MOVS     r2,#0
        0x00000314:    2301        .#      MOVS     r3,#1
        0x00000316:    2601        .&      MOVS     r6,#1
        0x00000318:    f7ffff5a    ..Z.    BL       PORT_Init ; 0x1d0
        0x0000031c:    fa06f005    ....    LSL      r0,r6,r5
        0x00000320:    6879        yh      LDR      r1,[r7,#4]
        0x00000322:    f1ba0f01    ....    CMP      r10,#1
        0x00000326:    bf14        ..      ITE      NE
        0x00000328:    ea210000    !...    BICNE    r0,r1,r0
        0x0000032c:    4308        .C      ORREQ    r0,r0,r1
        0x0000032e:    6078        x`      STR      r0,[r7,#4]
        0x00000330:    2101        .!      MOVS     r1,#1
        0x00000332:    9808        ..      LDR      r0,[sp,#0x20]
        0x00000334:    40a9        .@      LSLS     r1,r1,r5
        0x00000336:    f8d42100    ...!    LDR      r2,[r4,#0x100]
        0x0000033a:    f1b80f01    ....    CMP      r8,#1
        0x0000033e:    bf14        ..      ITE      NE
        0x00000340:    ea220101    "...    BICNE    r1,r2,r1
        0x00000344:    4311        .C      ORREQ    r1,r1,r2
        0x00000346:    2201        ."      MOVS     r2,#1
        0x00000348:    f8c41100    ....    STR      r1,[r4,#0x100]
        0x0000034c:    2801        .(      CMP      r0,#1
        0x0000034e:    fa02f005    ....    LSL      r0,r2,r5
        0x00000352:    f8d42200    ..."    LDR      r2,[r4,#0x200]
        0x00000356:    bf14        ..      ITE      NE
        0x00000358:    ea220000    "...    BICNE    r0,r2,r0
        0x0000035c:    4310        .C      ORREQ    r0,r0,r2
        0x0000035e:    9909        ..      LDR      r1,[sp,#0x24]
        0x00000360:    f8c40200    ....    STR      r0,[r4,#0x200]
        0x00000364:    2001        .       MOVS     r0,#1
        0x00000366:    40a8        .@      LSLS     r0,r0,r5
        0x00000368:    2901        .)      CMP      r1,#1
        0x0000036a:    f8d41400    ....    LDR      r1,[r4,#0x400]
        0x0000036e:    bf0c        ..      ITE      EQ
        0x00000370:    4308        .C      ORREQ    r0,r0,r1
        0x00000372:    ea210000    !...    BICNE    r0,r1,r0
        0x00000376:    f8c40400    ....    STR      r0,[r4,#0x400]
        0x0000037a:    b001        ..      ADD      sp,sp,#4
        0x0000037c:    e8bd85f0    ....    POP      {r4-r8,r10,pc}
    GPIO_SetBit
        0x00000380:    2201        ."      MOVS     r2,#1
        0x00000382:    6803        .h      LDR      r3,[r0,#0]
        0x00000384:    fa02f101    ....    LSL      r1,r2,r1
        0x00000388:    4319        .C      ORRS     r1,r1,r3
        0x0000038a:    6001        .`      STR      r1,[r0,#0]
        0x0000038c:    4770        pG      BX       lr
        0x0000038e:    bf00        ..      NOP      
    GPIO_ClrBit
        0x00000390:    2201        ."      MOVS     r2,#1
        0x00000392:    6803        .h      LDR      r3,[r0,#0]
        0x00000394:    fa02f101    ....    LSL      r1,r2,r1
        0x00000398:    ea230101    #...    BIC      r1,r3,r1
        0x0000039c:    6001        .`      STR      r1,[r0,#0]
        0x0000039e:    4770        pG      BX       lr
    GPIO_InvBit
        0x000003a0:    2201        ."      MOVS     r2,#1
        0x000003a2:    6803        .h      LDR      r3,[r0,#0]
        0x000003a4:    fa02f101    ....    LSL      r1,r2,r1
        0x000003a8:    4059        Y@      EORS     r1,r1,r3
        0x000003aa:    6001        .`      STR      r1,[r0,#0]
        0x000003ac:    4770        pG      BX       lr
        0x000003ae:    bf00        ..      NOP      
    GPIO_GetBit
        0x000003b0:    6b00        .k      LDR      r0,[r0,#0x30]
        0x000003b2:    40c8        .@      LSRS     r0,r0,r1
        0x000003b4:    f0000001    ....    AND      r0,r0,#1
        0x000003b8:    4770        pG      BX       lr
        0x000003ba:    bf00        ..      NOP      
    GPIO_SetBits
        0x000003bc:    f1c20210    ....    RSB      r2,r2,#0x10
        0x000003c0:    f64f73ff    O..s    MOV      r3,#0xffff
        0x000003c4:    fa23f202    #...    LSR      r2,r3,r2
        0x000003c8:    6803        .h      LDR      r3,[r0,#0]
        0x000003ca:    fa02f101    ....    LSL      r1,r2,r1
        0x000003ce:    4319        .C      ORRS     r1,r1,r3
        0x000003d0:    6001        .`      STR      r1,[r0,#0]
        0x000003d2:    4770        pG      BX       lr
    GPIO_ClrBits
        0x000003d4:    f1c20210    ....    RSB      r2,r2,#0x10
        0x000003d8:    f64f73ff    O..s    MOV      r3,#0xffff
        0x000003dc:    fa23f202    #...    LSR      r2,r3,r2
        0x000003e0:    6803        .h      LDR      r3,[r0,#0]
        0x000003e2:    fa02f101    ....    LSL      r1,r2,r1
        0x000003e6:    ea230101    #...    BIC      r1,r3,r1
        0x000003ea:    6001        .`      STR      r1,[r0,#0]
        0x000003ec:    4770        pG      BX       lr
        0x000003ee:    bf00        ..      NOP      
    GPIO_InvBits
        0x000003f0:    f1c20210    ....    RSB      r2,r2,#0x10
        0x000003f4:    f64f73ff    O..s    MOV      r3,#0xffff
        0x000003f8:    fa23f202    #...    LSR      r2,r3,r2
        0x000003fc:    6803        .h      LDR      r3,[r0,#0]
        0x000003fe:    fa02f101    ....    LSL      r1,r2,r1
        0x00000402:    4059        Y@      EORS     r1,r1,r3
        0x00000404:    6001        .`      STR      r1,[r0,#0]
        0x00000406:    4770        pG      BX       lr
    GPIO_GetBits
        0x00000408:    6b00        .k      LDR      r0,[r0,#0x30]
        0x0000040a:    f1c20210    ....    RSB      r2,r2,#0x10
        0x0000040e:    f64f73ff    O..s    MOV      r3,#0xffff
        0x00000412:    fa23f202    #...    LSR      r2,r3,r2
        0x00000416:    40c8        .@      LSRS     r0,r0,r1
        0x00000418:    4010        .@      ANDS     r0,r0,r2
        0x0000041a:    4770        pG      BX       lr
    GPIO_AtomicSetBit
        0x0000041c:    eb000081    ....    ADD      r0,r0,r1,LSL #2
        0x00000420:    2101        .!      MOVS     r1,#1
        0x00000422:    6401        .d      STR      r1,[r0,#0x40]
        0x00000424:    4770        pG      BX       lr
        0x00000426:    bf00        ..      NOP      
    GPIO_AtomicClrBit
        0x00000428:    eb000081    ....    ADD      r0,r0,r1,LSL #2
        0x0000042c:    2100        .!      MOVS     r1,#0
        0x0000042e:    6401        .d      STR      r1,[r0,#0x40]
        0x00000430:    4770        pG      BX       lr
        0x00000432:    bf00        ..      NOP      
    GPIO_AtomicInvBit
        0x00000434:    eb000081    ....    ADD      r0,r0,r1,LSL #2
        0x00000438:    6c01        .l      LDR      r1,[r0,#0x40]
        0x0000043a:    f1c10101    ....    RSB      r1,r1,#1
        0x0000043e:    6401        .d      STR      r1,[r0,#0x40]
        0x00000440:    4770        pG      BX       lr
        0x00000442:    bf00        ..      NOP      
    GPIO_AtomicSetBits
        0x00000444:    f1c20210    ....    RSB      r2,r2,#0x10
        0x00000448:    f64f73ff    O..s    MOV      r3,#0xffff
        0x0000044c:    fa23f202    #...    LSR      r2,r3,r2
        0x00000450:    f3ef8310    ....    MRS      r3,PRIMASK
        0x00000454:    b672        r.      CPSID    i
        0x00000456:    6803        .h      LDR      r3,[r0,#0]
        0x00000458:    fa02f101    ....    LSL      r1,r2,r1
        0x0000045c:    4319        .C      ORRS     r1,r1,r3
        0x0000045e:    6001        .`      STR      r1,[r0,#0]
        0x00000460:    b662        b.      CPSIE    i
        0x00000462:    4770        pG      BX       lr
    GPIO_AtomicClrBits
        0x00000464:    f1c20210    ....    RSB      r2,r2,#0x10
        0x00000468:    f64f73ff    O..s    MOV      r3,#0xffff
        0x0000046c:    fa23f202    #...    LSR      r2,r3,r2
        0x00000470:    f3ef8310    ....    MRS      r3,PRIMASK
        0x00000474:    b672        r.      CPSID    i
        0x00000476:    6803        .h      LDR      r3,[r0,#0]
        0x00000478:    fa02f101    ....    LSL      r1,r2,r1
        0x0000047c:    ea230101    #...    BIC      r1,r3,r1
        0x00000480:    6001        .`      STR      r1,[r0,#0]
        0x00000482:    b662        b.      CPSIE    i
        0x00000484:    4770        pG      BX       lr
        0x00000486:    bf00        ..      NOP      
    GPIO_AtomicInvBits
        0x00000488:    f1c20210    ....    RSB      r2,r2,#0x10
        0x0000048c:    f64f73ff    O..s    MOV      r3,#0xffff
        0x00000490:    fa23f202    #...    LSR      r2,r3,r2
        0x00000494:    f3ef8310    ....    MRS      r3,PRIMASK
        0x00000498:    b672        r.      CPSID    i
        0x0000049a:    6803        .h      LDR      r3,[r0,#0]
        0x0000049c:    fa02f101    ....    LSL      r1,r2,r1
        0x000004a0:    4059        Y@      EORS     r1,r1,r3
        0x000004a2:    6001        .`      STR      r1,[r0,#0]
        0x000004a4:    b662        b.      CPSIE    i
        0x000004a6:    4770        pG      BX       lr
    SFC_Init
        0x000004a8:    b580        ..      PUSH     {r7,lr}
        0x000004aa:    210c        .!      MOVS     r1,#0xc
        0x000004ac:    f2c40100    ....    MOVT     r1,#0x4000
        0x000004b0:    680a        .h      LDR      r2,[r1,#0]
        0x000004b2:    f4425200    B..R    ORR      r2,r2,#0x2000
        0x000004b6:    600a        .`      STR      r2,[r1,#0]
        0x000004b8:    f64a0100    J...    MOVW     r1,#0xa800
        0x000004bc:    f2c40104    ....    MOVT     r1,#0x4004
        0x000004c0:    2207        ."      MOVS     r2,#7
        0x000004c2:    f8c123f4    ...#    STR      r2,[r1,#0x3f4]
        0x000004c6:    680a        .h      LDR      r2,[r1,#0]
        0x000004c8:    f422626c    ".lb    BIC      r2,r2,#0xec0
        0x000004cc:    600a        .`      STR      r2,[r1,#0]
        0x000004ce:    7883        .x      LDRB     r3,[r0,#2]
        0x000004d0:    7802        .x      LDRB     r2,[r0,#0]
        0x000004d2:    029b        ..      LSLS     r3,r3,#10
        0x000004d4:    f890c001    ....    LDRB     r12,[r0,#1]
        0x000004d8:    f890e003    ....    LDRB     lr,[r0,#3]
        0x000004dc:    ea431282    C...    ORR      r2,r3,r2,LSL #6
        0x000004e0:    7900        .y      LDRB     r0,[r0,#4]
        0x000004e2:    680b        .h      LDR      r3,[r1,#0]
        0x000004e4:    431a        .C      ORRS     r2,r2,r3
        0x000004e6:    ea422040    B.@     ORR      r0,r2,r0,LSL #9
        0x000004ea:    f64f72ff    O..r    MOV      r2,#0xffff
        0x000004ee:    6008        .`      STR      r0,[r1,#0]
        0x000004f0:    6808        .h      LDR      r0,[r1,#0]
        0x000004f2:    f0400020    @. .    ORR      r0,r0,#0x20
        0x000004f6:    6008        .`      STR      r0,[r1,#0]
        0x000004f8:    6a08        .j      LDR      r0,[r1,#0x20]
        0x000004fa:    f02020ff     ..     BIC      r0,r0,#0xff00ff00
        0x000004fe:    6208        .b      STR      r0,[r1,#0x20]
        0x00000500:    6a08        .j      LDR      r0,[r1,#0x20]
        0x00000502:    ea40600c    @..`    ORR      r0,r0,r12,LSL #24
        0x00000506:    ea40200e    @..     ORR      r0,r0,lr,LSL #8
        0x0000050a:    6208        .b      STR      r0,[r1,#0x20]
        0x0000050c:    6808        .h      LDR      r0,[r1,#0]
        0x0000050e:    f0200020     . .    BIC      r0,r0,#0x20
        0x00000512:    6008        .`      STR      r0,[r1,#0]
        0x00000514:    6848        Hh      LDR      r0,[r1,#4]
        0x00000516:    4390        .C      BICS     r0,r0,r2
        0x00000518:    6048        H`      STR      r0,[r1,#4]
        0x0000051a:    f2400004    @...    MOVW     r0,#4
        0x0000051e:    f2c00000    ....    MOVT     r0,#0
        0x00000522:    f8590000    Y...    LDR      r0,[r9,r0]
        0x00000526:    684a        Jh      LDR      r2,[r1,#4]
        0x00000528:    ea420050    B.P.    ORR      r0,r2,r0,LSR #1
        0x0000052c:    f440407f    @..@    ORR      r0,r0,#0xff00
        0x00000530:    6048        H`      STR      r0,[r1,#4]
        0x00000532:    bd80        ..      POP      {r7,pc}
    SFC_ReadJEDEC
        0x00000534:    f64a0000    J...    MOVW     r0,#0xa800
        0x00000538:    f2c40004    ....    MOVT     r0,#0x4004
        0x0000053c:    6801        .h      LDR      r1,[r0,#0]
        0x0000053e:    f021010f    !...    BIC      r1,r1,#0xf
        0x00000542:    6001        .`      STR      r1,[r0,#0]
        0x00000544:    6801        .h      LDR      r1,[r0,#0]
        0x00000546:    f0410122    A.".    ORR      r1,r1,#0x22
        0x0000054a:    6001        .`      STR      r1,[r0,#0]
        0x0000054c:    219f        .!      MOVS     r1,#0x9f
        0x0000054e:    6241        Ab      STR      r1,[r0,#0x24]
        0x00000550:    2101        .!      MOVS     r1,#1
        0x00000552:    6141        Aa      STR      r1,[r0,#0x14]
        0x00000554:    6941        Ai      LDR      r1,[r0,#0x14]
        0x00000556:    2900        .)      CMP      r1,#0
        0x00000558:    d1fc        ..      BNE      0x554 ; SFC_ReadJEDEC + 32
        0x0000055a:    69c0        .i      LDR      r0,[r0,#0x1c]
        0x0000055c:    4770        pG      BX       lr
        0x0000055e:    bf00        ..      NOP      
    SFC_Erase
        0x00000560:    b580        ..      PUSH     {r7,lr}
        0x00000562:    2120         !      MOVS     r1,#0x20
        0x00000564:    f000f802    ....    BL       SFC_EraseEx ; 0x56c
        0x00000568:    bd80        ..      POP      {r7,pc}
        0x0000056a:    bf00        ..      NOP      
    SFC_EraseEx
        0x0000056c:    f64a0200    J...    MOVW     r2,#0xa800
        0x00000570:    f2c40204    ....    MOVT     r2,#0x4004
        0x00000574:    6190        .a      STR      r0,[r2,#0x18]
        0x00000576:    6813        .h      LDR      r3,[r2,#0]
        0x00000578:    3001        .0      ADDS     r0,#1
        0x0000057a:    f023030f    #...    BIC      r3,r3,#0xf
        0x0000057e:    6013        .`      STR      r3,[r2,#0]
        0x00000580:    f2410027    A.'.    MOV      r0,#0x1027
        0x00000584:    6813        .h      LDR      r3,[r2,#0]
        0x00000586:    bf08        ..      IT       EQ
        0x00000588:    f2410025    A.%.    MOVEQ    r0,#0x1025
        0x0000058c:    4318        .C      ORRS     r0,r0,r3
        0x0000058e:    6010        .`      STR      r0,[r2,#0]
        0x00000590:    2001        .       MOVS     r0,#1
        0x00000592:    6251        Qb      STR      r1,[r2,#0x24]
        0x00000594:    6150        Pa      STR      r0,[r2,#0x14]
        0x00000596:    bf00        ..      NOP      
        0x00000598:    6950        Pi      LDR      r0,[r2,#0x14]
        0x0000059a:    2800        .(      CMP      r0,#0
        0x0000059c:    d1fc        ..      BNE      0x598 ; SFC_EraseEx + 44
        0x0000059e:    6810        .h      LDR      r0,[r2,#0]
        0x000005a0:    f4205080     ..P    BIC      r0,r0,#0x1000
        0x000005a4:    6010        .`      STR      r0,[r2,#0]
        0x000005a6:    68d0        .h      LDR      r0,[r2,#0xc]
        0x000005a8:    0780        ..      LSLS     r0,r0,#30
        0x000005aa:    bf4e        N.      ITEE     MI
        0x000005ac:    2002        .       MOVMI    r0,#2
        0x000005ae:    68d0        .h      LDRPL    r0,[r2,#0xc]
        0x000005b0:    f3c00080    ....    UBFXPL   r0,r0,#2,#1
        0x000005b4:    4770        pG      BX       lr
        0x000005b6:    bf00        ..      NOP      
    SFC_Write
        0x000005b8:    b580        ..      PUSH     {r7,lr}
        0x000005ba:    f64a0e00    J...    MOVW     lr,#0xa800
        0x000005be:    f2c40e04    ....    MOVT     lr,#0x4004
        0x000005c2:    f8dec000    ....    LDR      r12,[lr,#0]
        0x000005c6:    f44c5c80    L..\    ORR      r12,r12,#0x1000
        0x000005ca:    f8cec000    ....    STR      r12,[lr,#0]
        0x000005ce:    b162        b.      CBZ      r2,0x5ea ; SFC_Write + 50
        0x000005d0:    f10040e0    ...@    ADD      r0,r0,#0x70000000
        0x000005d4:    3904        .9      SUBS     r1,#4
        0x000005d6:    bf00        ..      NOP      
        0x000005d8:    f8513f04    Q..?    LDR      r3,[r1,#4]!
        0x000005dc:    3a01        .:      SUBS     r2,#1
        0x000005de:    f8403b04    @..;    STR      r3,[r0],#4
        0x000005e2:    d1f9        ..      BNE      0x5d8 ; SFC_Write + 32
        0x000005e4:    e001        ..      B        0x5ea ; SFC_Write + 50
        0x000005e6:    bf00        ..      NOP      
        0x000005e8:    bf00        ..      NOP      
        0x000005ea:    f8de0008    ....    LDR      r0,[lr,#8]
        0x000005ee:    07c0        ..      LSLS     r0,r0,#31
        0x000005f0:    d1fa        ..      BNE      0x5e8 ; SFC_Write + 48
        0x000005f2:    f8de0000    ....    LDR      r0,[lr,#0]
        0x000005f6:    f4205080     ..P    BIC      r0,r0,#0x1000
        0x000005fa:    f8ce0000    ....    STR      r0,[lr,#0]
        0x000005fe:    f8de000c    ....    LDR      r0,[lr,#0xc]
        0x00000602:    0780        ..      LSLS     r0,r0,#30
        0x00000604:    bf4e        N.      ITEE     MI
        0x00000606:    2002        .       MOVMI    r0,#2
        0x00000608:    f8de000c    ....    LDRPL    r0,[lr,#0xc]
        0x0000060c:    f3c00080    ....    UBFXPL   r0,r0,#2,#1
        0x00000610:    bd80        ..      POP      {r7,pc}
        0x00000612:    bf00        ..      NOP      
    SFC_Read
        0x00000614:    2a00        .*      CMP      r2,#0
        0x00000616:    bf08        ..      IT       EQ
        0x00000618:    4770        pG      BXEQ     lr
        0x0000061a:    f10040e0    ...@    ADD      r0,r0,#0x70000000
        0x0000061e:    3904        .9      SUBS     r1,#4
        0x00000620:    f8503b04    P..;    LDR      r3,[r0],#4
        0x00000624:    3a01        .:      SUBS     r2,#1
        0x00000626:    f8413f04    A..?    STR      r3,[r1,#4]!
        0x0000062a:    d1f9        ..      BNE      0x620 ; SFC_Read + 12
        0x0000062c:    4770        pG      BX       lr
        0x0000062e:    bf00        ..      NOP      
    SFC_ReadStatusReg
        0x00000630:    f64a0100    J...    MOVW     r1,#0xa800
        0x00000634:    f2c40104    ....    MOVT     r1,#0x4004
        0x00000638:    680a        .h      LDR      r2,[r1,#0]
        0x0000063a:    f022020f    "...    BIC      r2,r2,#0xf
        0x0000063e:    600a        .`      STR      r2,[r1,#0]
        0x00000640:    680a        .h      LDR      r2,[r1,#0]
        0x00000642:    f0420221    B.!.    ORR      r2,r2,#0x21
        0x00000646:    600a        .`      STR      r2,[r1,#0]
        0x00000648:    6248        Hb      STR      r0,[r1,#0x24]
        0x0000064a:    2001        .       MOVS     r0,#1
        0x0000064c:    6148        Ha      STR      r0,[r1,#0x14]
        0x0000064e:    bf00        ..      NOP      
        0x00000650:    6948        Hi      LDR      r0,[r1,#0x14]
        0x00000652:    2800        .(      CMP      r0,#0
        0x00000654:    d1fc        ..      BNE      0x650 ; SFC_ReadStatusReg + 32
        0x00000656:    69c8        .i      LDR      r0,[r1,#0x1c]
        0x00000658:    b2c0        ..      UXTB     r0,r0
        0x0000065a:    4770        pG      BX       lr
    SFC_WriteStatusReg
        0x0000065c:    f64a0200    J...    MOVW     r2,#0xa800
        0x00000660:    f2c40204    ....    MOVT     r2,#0x4004
        0x00000664:    6813        .h      LDR      r3,[r2,#0]
        0x00000666:    f023030f    #...    BIC      r3,r3,#0xf
        0x0000066a:    6013        .`      STR      r3,[r2,#0]
        0x0000066c:    f8d2c000    ....    LDR      r12,[r2,#0]
        0x00000670:    f2410326    A.&.    MOV      r3,#0x1026
        0x00000674:    ea43030c    C...    ORR      r3,r3,r12
        0x00000678:    6013        .`      STR      r3,[r2,#0]
        0x0000067a:    6250        Pb      STR      r0,[r2,#0x24]
        0x0000067c:    2001        .       MOVS     r0,#1
        0x0000067e:    61d1        .a      STR      r1,[r2,#0x1c]
        0x00000680:    6150        Pa      STR      r0,[r2,#0x14]
        0x00000682:    bf00        ..      NOP      
        0x00000684:    6950        Pi      LDR      r0,[r2,#0x14]
        0x00000686:    2800        .(      CMP      r0,#0
        0x00000688:    d1fc        ..      BNE      0x684 ; SFC_WriteStatusReg + 40
        0x0000068a:    4770        pG      BX       lr
    SFC_QuadSwitch
        0x0000068c:    b5b0        ..      PUSH     {r4,r5,r7,lr}
        0x0000068e:    4604        .F      MOV      r4,r0
        0x00000690:    2800        .(      CMP      r0,#0
        0x00000692:    bf18        ..      IT       NE
        0x00000694:    2401        .$      MOVNE    r4,#1
        0x00000696:    2035        5       MOVS     r0,#0x35
        0x00000698:    f7ffffca    ....    BL       SFC_ReadStatusReg ; 0x630
        0x0000069c:    4605        .F      MOV      r5,r0
        0x0000069e:    2005        .       MOVS     r0,#5
        0x000006a0:    f7ffffc6    ....    BL       SFC_ReadStatusReg ; 0x630
        0x000006a4:    ea402044    @.D     ORR      r0,r0,r4,LSL #9
        0x000006a8:    f00501fd    ....    AND      r1,r5,#0xfd
        0x000006ac:    ea402101    @..!    ORR      r1,r0,r1,LSL #8
        0x000006b0:    2001        .       MOVS     r0,#1
        0x000006b2:    f7ffffd3    ....    BL       SFC_WriteStatusReg ; 0x65c
        0x000006b6:    bdb0        ..      POP      {r4,r5,r7,pc}
    SFC_QuadState
        0x000006b8:    b580        ..      PUSH     {r7,lr}
        0x000006ba:    2035        5       MOVS     r0,#0x35
        0x000006bc:    f7ffffb8    ....    BL       SFC_ReadStatusReg ; 0x630
        0x000006c0:    f3c00040    ..@.    UBFX     r0,r0,#1,#1
        0x000006c4:    bd80        ..      POP      {r7,pc}
        0x000006c6:    0000        ..      MOVS     r0,r0
    FLASH_Erase
        0x000006c8:    0501        ..      LSLS     r1,r0,#20
        0x000006ca:    bf1c        ..      ITT      NE
        0x000006cc:    2002        .       MOVNE    r0,#2
        0x000006ce:    4770        pG      BXNE     lr
        0x000006d0:    f24a0124    J.$.    MOV      r1,#0xa024
        0x000006d4:    f3ef8210    ....    MRS      r2,PRIMASK
        0x000006d8:    b672        r.      CPSID    i
        0x000006da:    f2c40104    ....    MOVT     r1,#0x4004
        0x000006de:    680a        .h      LDR      r2,[r1,#0]
        0x000006e0:    2a00        .*      CMP      r2,#0
        0x000006e2:    d404        ..      BMI      0x6ee ; FLASH_Erase + 38
        0x000006e4:    bf00        ..      NOP      
        0x000006e6:    680a        .h      LDR      r2,[r1,#0]
        0x000006e8:    f1b23fff    ...?    CMP      r2,#0xffffffff
        0x000006ec:    dcfa        ..      BGT      0x6e4 ; FLASH_Erase + 28
        0x000006ee:    f0404078    @.x@    ORR      r0,r0,#0xf8000000
        0x000006f2:    f8410c1c    A...    STR      r0,[r1,#-0x1c]
        0x000006f6:    f2400004    @...    MOVW     r0,#4
        0x000006fa:    f2c00000    ....    MOVT     r0,#0
        0x000006fe:    f8592000    Y..     LDR      r2,[r9,r0]
        0x00000702:    b152        R.      CBZ      r2,0x71a ; FLASH_Erase + 82
        0x00000704:    2200        ."      MOVS     r2,#0
        0x00000706:    bf00        ..      NOP      
        0x00000708:    bf00        ..      NOP      
        0x0000070a:    f8593000    Y..0    LDR      r3,[r9,r0]
        0x0000070e:    3201        .2      ADDS     r2,#1
        0x00000710:    429a        .B      CMP      r2,r3
        0x00000712:    d3f9        ..      BCC      0x708 ; FLASH_Erase + 64
        0x00000714:    e001        ..      B        0x71a ; FLASH_Erase + 82
        0x00000716:    bf00        ..      NOP      
        0x00000718:    bf00        ..      NOP      
        0x0000071a:    6808        .h      LDR      r0,[r1,#0]
        0x0000071c:    07c0        ..      LSLS     r0,r0,#31
        0x0000071e:    d1fb        ..      BNE      0x718 ; FLASH_Erase + 80
        0x00000720:    f8510c18    Q...    LDR      r0,[r1,#-0x18]
        0x00000724:    f4402080    @..     ORR      r0,r0,#0x40000
        0x00000728:    f8410c18    A...    STR      r0,[r1,#-0x18]
        0x0000072c:    b662        b.      CPSIE    i
        0x0000072e:    2000        .       MOVS     r0,#0
        0x00000730:    4770        pG      BX       lr
        0x00000732:    bf00        ..      NOP      
    FLASH_Write
        0x00000734:    f0000c0f    ....    AND      r12,r0,#0xf
        0x00000738:    f0020303    ....    AND      r3,r2,#3
        0x0000073c:    ea53030c    S...    ORRS     r3,r3,r12
        0x00000740:    bf1c        ..      ITT      NE
        0x00000742:    2002        .       MOVNE    r0,#2
        0x00000744:    4770        pG      BXNE     lr
        0x00000746:    f24a0c0c    J...    MOV      r12,#0xa00c
        0x0000074a:    f3ef8310    ....    MRS      r3,PRIMASK
        0x0000074e:    b672        r.      CPSID    i
        0x00000750:    f2c40c04    ....    MOVT     r12,#0x4004
        0x00000754:    f8dc3018    ...0    LDR      r3,[r12,#0x18]
        0x00000758:    2b00        .+      CMP      r3,#0
        0x0000075a:    d405        ..      BMI      0x768 ; FLASH_Write + 52
        0x0000075c:    bf00        ..      NOP      
        0x0000075e:    f8dc3018    ...0    LDR      r3,[r12,#0x18]
        0x00000762:    f1b33fff    ...?    CMP      r3,#0xffffffff
        0x00000766:    dcf9        ..      BGT      0x75c ; FLASH_Write + 40
        0x00000768:    f8dc3000    ...0    LDR      r3,[r12,#0]
        0x0000076c:    f0430301    C...    ORR      r3,r3,#1
        0x00000770:    f8cc3000    ...0    STR      r3,[r12,#0]
        0x00000774:    f84c0c08    L...    STR      r0,[r12,#-8]
        0x00000778:    b312        ..      CBZ      r2,0x7c0 ; FLASH_Write + 140
        0x0000077a:    2000        .       MOVS     r0,#0
        0x0000077c:    e003        ..      B        0x786 ; FLASH_Write + 82
        0x0000077e:    bf00        ..      NOP      
        0x00000780:    3004        .0      ADDS     r0,#4
        0x00000782:    4290        .B      CMP      r0,r2
        0x00000784:    d21c        ..      BCS      0x7c0 ; FLASH_Write + 140
        0x00000786:    f8513020    Q. 0    LDR      r3,[r1,r0,LSL #2]
        0x0000078a:    f84c3c0c    L..<    STR      r3,[r12,#-0xc]
        0x0000078e:    f0400301    @...    ORR      r3,r0,#1
        0x00000792:    f8513023    Q.#0    LDR      r3,[r1,r3,LSL #2]
        0x00000796:    f84c3c0c    L..<    STR      r3,[r12,#-0xc]
        0x0000079a:    f0400302    @...    ORR      r3,r0,#2
        0x0000079e:    f8513023    Q.#0    LDR      r3,[r1,r3,LSL #2]
        0x000007a2:    f84c3c0c    L..<    STR      r3,[r12,#-0xc]
        0x000007a6:    f0400303    @...    ORR      r3,r0,#3
        0x000007aa:    f8513023    Q.#0    LDR      r3,[r1,r3,LSL #2]
        0x000007ae:    f84c3c0c    L..<    STR      r3,[r12,#-0xc]
        0x000007b2:    bf00        ..      NOP      
        0x000007b4:    f8dc3018    ...0    LDR      r3,[r12,#0x18]
        0x000007b8:    071b        ..      LSLS     r3,r3,#28
        0x000007ba:    d4e1        ..      BMI      0x780 ; FLASH_Write + 76
        0x000007bc:    bf00        ..      NOP      
        0x000007be:    e7f9        ..      B        0x7b4 ; FLASH_Write + 128
        0x000007c0:    f2400004    @...    MOVW     r0,#4
        0x000007c4:    f2c00000    ....    MOVT     r0,#0
        0x000007c8:    f8591000    Y...    LDR      r1,[r9,r0]
        0x000007cc:    b149        I.      CBZ      r1,0x7e2 ; FLASH_Write + 174
        0x000007ce:    2100        .!      MOVS     r1,#0
        0x000007d0:    bf00        ..      NOP      
        0x000007d2:    f8592000    Y..     LDR      r2,[r9,r0]
        0x000007d6:    3101        .1      ADDS     r1,#1
        0x000007d8:    4291        .B      CMP      r1,r2
        0x000007da:    d3f9        ..      BCC      0x7d0 ; FLASH_Write + 156
        0x000007dc:    e001        ..      B        0x7e2 ; FLASH_Write + 174
        0x000007de:    bf00        ..      NOP      
        0x000007e0:    bf00        ..      NOP      
        0x000007e2:    f8dc0018    ....    LDR      r0,[r12,#0x18]
        0x000007e6:    0780        ..      LSLS     r0,r0,#30
        0x000007e8:    d4fa        ..      BMI      0x7e0 ; FLASH_Write + 172
        0x000007ea:    f8dc0000    ....    LDR      r0,[r12,#0]
        0x000007ee:    f0200001     ...    BIC      r0,r0,#1
        0x000007f2:    f8cc0000    ....    STR      r0,[r12,#0]
        0x000007f6:    f8dc0000    ....    LDR      r0,[r12,#0]
        0x000007fa:    f4402080    @..     ORR      r0,r0,#0x40000
        0x000007fe:    f8cc0000    ....    STR      r0,[r12,#0]
        0x00000802:    b662        b.      CPSIE    i
        0x00000804:    2000        .       MOVS     r0,#0
        0x00000806:    4770        pG      BX       lr
    Flash_Param_at_xMHz
        0x00000808:    b580        ..      PUSH     {r7,lr}
        0x0000080a:    f64f72ac    O..r    MOV      r2,#0xffac
        0x0000080e:    f3ef8110    ....    MRS      r1,PRIMASK
        0x00000812:    b672        r.      CPSID    i
        0x00000814:    284f        O(      CMP      r0,#0x4f
        0x00000816:    f6c03211    ...2    MOVT     r2,#0xb11
        0x0000081a:    dc0e        ..      BGT      0x83a ; Flash_Param_at_xMHz + 50
        0x0000081c:    281e        .(      CMP      r0,#0x1e
        0x0000081e:    d02c        ,.      BEQ      0x87a ; Flash_Param_at_xMHz + 114
        0x00000820:    2828        ((      CMP      r0,#0x28
        0x00000822:    d11b        ..      BNE      0x85c ; Flash_Param_at_xMHz + 84
        0x00000824:    f2404331    @.1C    MOV      r3,#0x431
        0x00000828:    f6482049    H.I     MOV      r0,#0x8a49
        0x0000082c:    f24141a9    A..A    MOV      r1,#0x14a9
        0x00000830:    f2c11300    ....    MOVT     r3,#0x1100
        0x00000834:    4798        .G      BLX      r3
        0x00000836:    b662        b.      CPSIE    i
        0x00000838:    bd80        ..      POP      {r7,pc}
        0x0000083a:    2850        P(      CMP      r0,#0x50
        0x0000083c:    d028        (.      BEQ      0x890 ; Flash_Param_at_xMHz + 136
        0x0000083e:    2878        x(      CMP      r0,#0x78
        0x00000840:    d10c        ..      BNE      0x85c ; Flash_Param_at_xMHz + 84
        0x00000842:    f6414089    A..@    MOV      r0,#0x1c89
        0x00000846:    f2404331    @.1C    MOV      r3,#0x431
        0x0000084a:    f2c00001    ....    MOVT     r0,#1
        0x0000084e:    f643516b    C.kQ    MOV      r1,#0x3d6b
        0x00000852:    f2c11300    ....    MOVT     r3,#0x1100
        0x00000856:    4798        .G      BLX      r3
        0x00000858:    b662        b.      CPSIE    i
        0x0000085a:    bd80        ..      POP      {r7,pc}
        0x0000085c:    f6414089    A..@    MOV      r0,#0x1c89
        0x00000860:    f2c00001    ....    MOVT     r0,#1
        0x00000864:    f2404331    @.1C    MOV      r3,#0x431
        0x00000868:    f5004092    ...@    ADD      r0,r0,#0x4900
        0x0000086c:    f6444174    D.tA    MOV      r1,#0x4c74
        0x00000870:    f2c11300    ....    MOVT     r3,#0x1100
        0x00000874:    4798        .G      BLX      r3
        0x00000876:    b662        b.      CPSIE    i
        0x00000878:    bd80        ..      POP      {r7,pc}
        0x0000087a:    f2404331    @.1C    MOV      r3,#0x431
        0x0000087e:    f6481049    H.I.    MOV      r0,#0x8949
        0x00000882:    f64071a1    @..q    MOV      r1,#0xfa1
        0x00000886:    f2c11300    ....    MOVT     r3,#0x1100
        0x0000088a:    4798        .G      BLX      r3
        0x0000088c:    b662        b.      CPSIE    i
        0x0000088e:    bd80        ..      POP      {r7,pc}
        0x00000890:    f2404331    @.1C    MOV      r3,#0x431
        0x00000894:    f24d3049    M.I0    MOV      r0,#0xd349
        0x00000898:    f642114a    B.J.    MOV      r1,#0x294a
        0x0000089c:    f2c11300    ....    MOVT     r3,#0x1100
        0x000008a0:    4798        .G      BLX      r3
        0x000008a2:    b662        b.      CPSIE    i
        0x000008a4:    bd80        ..      POP      {r7,pc}
        0x000008a6:    0000        ..      MOVS     r0,r0
    SystemCoreClockUpdate
        0x000008a8:    f04f4180    O..A    MOV      r1,#0x40000000
        0x000008ac:    6808        .h      LDR      r0,[r1,#0]
        0x000008ae:    07c0        ..      LSLS     r0,r0,#31
        0x000008b0:    f2400008    @...    MOVW     r0,#8
        0x000008b4:    f2c00000    ....    MOVT     r0,#0
        0x000008b8:    d10c        ..      BNE      0x8d4 ; SystemCoreClockUpdate + 44
        0x000008ba:    6809        .h      LDR      r1,[r1,#0]
        0x000008bc:    f3c10182    ....    UBFX     r1,r1,#2,#3
        0x000008c0:    2904        .)      CMP      r1,#4
        0x000008c2:    d83f        ?.      BHI      0x944 ; SystemCoreClockUpdate + 156
        0x000008c4:    e8dff001    ....    TBB      [pc,r1]
    $d.1
        0x000008c8:    26031603    ...&    DCD    637736451
        0x000008cc:    002b        +.      DCW    43
    $t.2
        0x000008ce:    f44f41fa    O..A    MOV      r1,#0x7d00
        0x000008d2:    e035        5.      B        0x940 ; SystemCoreClockUpdate + 152
        0x000008d4:    f24a0100    J...    MOVW     r1,#0xa000
        0x000008d8:    f2c4010a    ....    MOVT     r1,#0x400a
        0x000008dc:    6809        .h      LDR      r1,[r1,#0]
        0x000008de:    0789        ..      LSLS     r1,r1,#30
        0x000008e0:    f6452100    E..!    MOVW     r1,#0x5a00
        0x000008e4:    f2c02162    ..b!    MOVT     r1,#0x262
        0x000008e8:    bf5c        \.      ITT      PL
        0x000008ea:    f6425100    B..Q    MOVWPL   r1,#0x2d00
        0x000008ee:    f2c01131    ..1.    MOVTPL   r1,#0x131
        0x000008f2:    e02f        /.      B        0x954 ; SystemCoreClockUpdate + 172
        0x000008f4:    f24a0100    J...    MOVW     r1,#0xa000
        0x000008f8:    f2c4010a    ....    MOVT     r1,#0x400a
        0x000008fc:    6c09        .l      LDR      r1,[r1,#0x40]
        0x000008fe:    0789        ..      LSLS     r1,r1,#30
        0x00000900:    f24c11ec    L...    MOV      r1,#0xc1ec
        0x00000904:    f6c031eb    ...1    MOVT     r1,#0xbeb
        0x00000908:    bf5c        \.      ITT      PL
        0x0000090a:    f6406100    @..a    MOVWPL   r1,#0xe00
        0x0000090e:    f2c07127    ..'q    MOVTPL   r1,#0x727
        0x00000912:    e015        ..      B        0x940 ; SystemCoreClockUpdate + 152
        0x00000914:    f6413100    A..1    MOVW     r1,#0x1b00
        0x00000918:    f2c001b7    ....    MOVT     r1,#0xb7
        0x0000091c:    e010        ..      B        0x940 ; SystemCoreClockUpdate + 152
        0x0000091e:    f6425100    B..Q    MOVW     r1,#0x2d00
        0x00000922:    f2c01131    ..1.    MOVT     r1,#0x131
        0x00000926:    f8491000    I...    STR      r1,[r9,r0]
        0x0000092a:    f24a0100    J...    MOVW     r1,#0xa000
        0x0000092e:    f2c4010a    ....    MOVT     r1,#0x400a
        0x00000932:    6809        .h      LDR      r1,[r1,#0]
        0x00000934:    0789        ..      LSLS     r1,r1,#30
        0x00000936:    d505        ..      BPL      0x944 ; SystemCoreClockUpdate + 156
        0x00000938:    f6452100    E..!    MOVW     r1,#0x5a00
        0x0000093c:    f2c02162    ..b!    MOVT     r1,#0x262
        0x00000940:    f8491000    I...    STR      r1,[r9,r0]
        0x00000944:    f04f4180    O..A    MOV      r1,#0x40000000
        0x00000948:    6809        .h      LDR      r1,[r1,#0]
        0x0000094a:    0789        ..      LSLS     r1,r1,#30
        0x0000094c:    d504        ..      BPL      0x958 ; SystemCoreClockUpdate + 176
        0x0000094e:    f8591000    Y...    LDR      r1,[r9,r0]
        0x00000952:    08c9        ..      LSRS     r1,r1,#3
        0x00000954:    f8491000    I...    STR      r1,[r9,r0]
        0x00000958:    f8590000    Y...    LDR      r0,[r9,r0]
        0x0000095c:    f64d6183    M..a    MOV      r1,#0xde83
        0x00000960:    f2c4311b    ...1    MOVT     r1,#0x431b
        0x00000964:    fba00101    ....    UMULL    r0,r1,r0,r1
        0x00000968:    0c88        ..      LSRS     r0,r1,#18
        0x0000096a:    f2400104    @...    MOVW     r1,#4
        0x0000096e:    f2c00100    ....    MOVT     r1,#0
        0x00000972:    f8490001    I...    STR      r0,[r9,r1]
        0x00000976:    4770        pG      BX       lr
    SystemInit
        0x00000978:    b510        ..      PUSH     {r4,lr}
        0x0000097a:    2008        .       MOVS     r0,#8
        0x0000097c:    f2c40000    ....    MOVT     r0,#0x4000
        0x00000980:    6801        .h      LDR      r1,[r0,#0]
        0x00000982:    2496        .$      MOVS     r4,#0x96
        0x00000984:    f0417100    A..q    ORR      r1,r1,#0x2000000
        0x00000988:    6001        .`      STR      r1,[r0,#0]
        0x0000098a:    2096        .       MOVS     r0,#0x96
        0x0000098c:    f7ffff3c    ..<.    BL       Flash_Param_at_xMHz ; 0x808
        0x00000990:    2000        .       MOVS     r0,#0
        0x00000992:    f000f839    ..9.    BL       switchToPLL ; 0xa08
        0x00000996:    f7ffff87    ....    BL       SystemCoreClockUpdate ; 0x8a8
        0x0000099a:    f2400008    @...    MOVW     r0,#8
        0x0000099e:    f2c00000    ....    MOVT     r0,#0
        0x000009a2:    f8590000    Y...    LDR      r0,[r9,r0]
        0x000009a6:    f6406100    @..a    MOVW     r1,#0xe00
        0x000009aa:    f2c07127    ..'q    MOVT     r1,#0x727
        0x000009ae:    4288        .B      CMP      r0,r1
        0x000009b0:    d817        ..      BHI      0x9e2 ; SystemInit + 106
        0x000009b2:    f24b4100    K..A    MOVW     r1,#0xb400
        0x000009b6:    f2c041c4    ...A    MOVT     r1,#0x4c4
        0x000009ba:    4288        .B      CMP      r0,r1
        0x000009bc:    d901        ..      BLS      0x9c2 ; SystemInit + 74
        0x000009be:    2478        x$      MOVS     r4,#0x78
        0x000009c0:    e00f        ..      B        0x9e2 ; SystemInit + 106
        0x000009c2:    f6452100    E..!    MOVW     r1,#0x5a00
        0x000009c6:    f2c02162    ..b!    MOVT     r1,#0x262
        0x000009ca:    4288        .B      CMP      r0,r1
        0x000009cc:    d901        ..      BLS      0x9d2 ; SystemInit + 90
        0x000009ce:    2450        P$      MOVS     r4,#0x50
        0x000009d0:    e007        ..      B        0x9e2 ; SystemInit + 106
        0x000009d2:    f24c3180    L..1    MOV      r1,#0xc380
        0x000009d6:    f2c011c9    ....    MOVT     r1,#0x1c9
        0x000009da:    241e        .$      MOVS     r4,#0x1e
        0x000009dc:    4288        .B      CMP      r0,r1
        0x000009de:    bf88        ..      IT       HI
        0x000009e0:    2428        ($      MOVHI    r4,#0x28
        0x000009e2:    4620         F      MOV      r0,r4
        0x000009e4:    f7ffff10    ....    BL       Flash_Param_at_xMHz ; 0x808
        0x000009e8:    f2401080    @...    MOVW     r0,#0x180
        0x000009ec:    f2c4000a    ....    MOVT     r0,#0x400a
        0x000009f0:    f8d01100    ....    LDR      r1,[r0,#0x100]
        0x000009f4:    f0210102    !...    BIC      r1,r1,#2
        0x000009f8:    f8c01100    ....    STR      r1,[r0,#0x100]
        0x000009fc:    6801        .h      LDR      r1,[r0,#0]
        0x000009fe:    f021010c    !...    BIC      r1,r1,#0xc
        0x00000a02:    6001        .`      STR      r1,[r0,#0]
        0x00000a04:    bd10        ..      POP      {r4,pc}
        0x00000a06:    bf00        ..      NOP      
    switchToPLL
        0x00000a08:    b510        ..      PUSH     {r4,lr}
        0x00000a0a:    4604        .F      MOV      r4,r0
        0x00000a0c:    f000f820    .. .    BL       switchTo20MHz ; 0xa50
        0x00000a10:    f000f8d2    ....    BL       PLLInit ; 0xbb8
        0x00000a14:    2004        .       MOVS     r0,#4
        0x00000a16:    f2c40000    ....    MOVT     r0,#0x4000
        0x00000a1a:    2101        .!      MOVS     r1,#1
        0x00000a1c:    6001        .`      STR      r1,[r0,#0]
        0x00000a1e:    f04f4080    O..@    MOV      r0,#0x40000000
        0x00000a22:    6801        .h      LDR      r1,[r0,#0]
        0x00000a24:    2c00        .,      CMP      r4,#0
        0x00000a26:    f021011c    !...    BIC      r1,r1,#0x1c
        0x00000a2a:    6001        .`      STR      r1,[r0,#0]
        0x00000a2c:    6801        .h      LDR      r1,[r0,#0]
        0x00000a2e:    f0410104    A...    ORR      r1,r1,#4
        0x00000a32:    6001        .`      STR      r1,[r0,#0]
        0x00000a34:    6801        .h      LDR      r1,[r0,#0]
        0x00000a36:    f0210102    !...    BIC      r1,r1,#2
        0x00000a3a:    bf18        ..      IT       NE
        0x00000a3c:    3102        .1      ADDNE    r1,#2
        0x00000a3e:    6001        .`      STR      r1,[r0,#0]
        0x00000a40:    6801        .h      LDR      r1,[r0,#0]
        0x00000a42:    f0210101    !...    BIC      r1,r1,#1
        0x00000a46:    6001        .`      STR      r1,[r0,#0]
        0x00000a48:    bd10        ..      POP      {r4,pc}
        0x00000a4a:    bf00        ..      NOP      
    FPU_Enable
        0x00000a4c:    4770        pG      BX       lr
        0x00000a4e:    bf00        ..      NOP      
    switchTo20MHz
        0x00000a50:    b580        ..      PUSH     {r7,lr}
        0x00000a52:    f24a0000    J...    MOVW     r0,#0xa000
        0x00000a56:    f2c4000a    ....    MOVT     r0,#0x400a
        0x00000a5a:    2105        .!      MOVS     r1,#5
        0x00000a5c:    6001        .`      STR      r1,[r0,#0]
        0x00000a5e:    f000f807    ....    BL       delay_3ms ; 0xa70
        0x00000a62:    f04f4080    O..@    MOV      r0,#0x40000000
        0x00000a66:    6801        .h      LDR      r1,[r0,#0]
        0x00000a68:    f0410101    A...    ORR      r1,r1,#1
        0x00000a6c:    6001        .`      STR      r1,[r0,#0]
        0x00000a6e:    bd80        ..      POP      {r7,pc}
    delay_3ms
        0x00000a70:    f04f4080    O..@    MOV      r0,#0x40000000
        0x00000a74:    6801        .h      LDR      r1,[r0,#0]
        0x00000a76:    07c9        ..      LSLS     r1,r1,#31
        0x00000a78:    d110        ..      BNE      0xa9c ; delay_3ms + 44
        0x00000a7a:    6800        .h      LDR      r0,[r0,#0]
        0x00000a7c:    f0100f1c    ....    TST      r0,#0x1c
        0x00000a80:    d006        ..      BEQ      0xa90 ; delay_3ms + 32
        0x00000a82:    f04f4080    O..@    MOV      r0,#0x40000000
        0x00000a86:    6800        .h      LDR      r0,[r0,#0]
        0x00000a88:    f000001c    ....    AND      r0,r0,#0x1c
        0x00000a8c:    2808        .(      CMP      r0,#8
        0x00000a8e:    d105        ..      BNE      0xa9c ; delay_3ms + 44
        0x00000a90:    2014        .       MOVS     r0,#0x14
        0x00000a92:    bf00        ..      NOP      
        0x00000a94:    3801        .8      SUBS     r0,#1
        0x00000a96:    bf00        ..      NOP      
        0x00000a98:    d1fc        ..      BNE      0xa94 ; delay_3ms + 36
        0x00000a9a:    e004        ..      B        0xaa6 ; delay_3ms + 54
        0x00000a9c:    f6446020    D. `    MOV      r0,#0x4e20
        0x00000aa0:    3801        .8      SUBS     r0,#1
        0x00000aa2:    bf00        ..      NOP      
        0x00000aa4:    d1fc        ..      BNE      0xaa0 ; delay_3ms + 48
        0x00000aa6:    4770        pG      BX       lr
    switchTo2M5Hz
        0x00000aa8:    b510        ..      PUSH     {r4,lr}
        0x00000aaa:    f7ffffd1    ....    BL       switchTo20MHz ; 0xa50
        0x00000aae:    2004        .       MOVS     r0,#4
        0x00000ab0:    f2c40000    ....    MOVT     r0,#0x4000
        0x00000ab4:    2101        .!      MOVS     r1,#1
        0x00000ab6:    6001        .`      STR      r1,[r0,#0]
        0x00000ab8:    f04f4480    O..D    MOV      r4,#0x40000000
        0x00000abc:    6820         h      LDR      r0,[r4,#0]
        0x00000abe:    f020001c     ...    BIC      r0,r0,#0x1c
        0x00000ac2:    6020         `      STR      r0,[r4,#0]
        0x00000ac4:    6820         h      LDR      r0,[r4,#0]
        0x00000ac6:    f0400010    @...    ORR      r0,r0,#0x10
        0x00000aca:    6020         `      STR      r0,[r4,#0]
        0x00000acc:    6820         h      LDR      r0,[r4,#0]
        0x00000ace:    f0400002    @...    ORR      r0,r0,#2
        0x00000ad2:    6020         `      STR      r0,[r4,#0]
        0x00000ad4:    f7ffffcc    ....    BL       delay_3ms ; 0xa70
        0x00000ad8:    6820         h      LDR      r0,[r4,#0]
        0x00000ada:    f0200001     ...    BIC      r0,r0,#1
        0x00000ade:    6020         `      STR      r0,[r4,#0]
        0x00000ae0:    bd10        ..      POP      {r4,pc}
        0x00000ae2:    bf00        ..      NOP      
    switchTo40MHz
        0x00000ae4:    b580        ..      PUSH     {r7,lr}
        0x00000ae6:    f24a0000    J...    MOVW     r0,#0xa000
        0x00000aea:    f2c4000a    ....    MOVT     r0,#0x400a
        0x00000aee:    2107        .!      MOVS     r1,#7
        0x00000af0:    6001        .`      STR      r1,[r0,#0]
        0x00000af2:    f7ffffbd    ....    BL       delay_3ms ; 0xa70
        0x00000af6:    f04f4080    O..@    MOV      r0,#0x40000000
        0x00000afa:    6801        .h      LDR      r1,[r0,#0]
        0x00000afc:    f0410101    A...    ORR      r1,r1,#1
        0x00000b00:    6001        .`      STR      r1,[r0,#0]
        0x00000b02:    bd80        ..      POP      {r7,pc}
    switchTo5MHz
        0x00000b04:    b510        ..      PUSH     {r4,lr}
        0x00000b06:    f7ffffed    ....    BL       switchTo40MHz ; 0xae4
        0x00000b0a:    2004        .       MOVS     r0,#4
        0x00000b0c:    f2c40000    ....    MOVT     r0,#0x4000
        0x00000b10:    2101        .!      MOVS     r1,#1
        0x00000b12:    6001        .`      STR      r1,[r0,#0]
        0x00000b14:    f04f4480    O..D    MOV      r4,#0x40000000
        0x00000b18:    6820         h      LDR      r0,[r4,#0]
        0x00000b1a:    f020001c     ...    BIC      r0,r0,#0x1c
        0x00000b1e:    6020         `      STR      r0,[r4,#0]
        0x00000b20:    6820         h      LDR      r0,[r4,#0]
        0x00000b22:    f0400010    @...    ORR      r0,r0,#0x10
        0x00000b26:    6020         `      STR      r0,[r4,#0]
        0x00000b28:    6820         h      LDR      r0,[r4,#0]
        0x00000b2a:    f0400002    @...    ORR      r0,r0,#2
        0x00000b2e:    6020         `      STR      r0,[r4,#0]
        0x00000b30:    f7ffff9e    ....    BL       delay_3ms ; 0xa70
        0x00000b34:    6820         h      LDR      r0,[r4,#0]
        0x00000b36:    f0200001     ...    BIC      r0,r0,#1
        0x00000b3a:    6020         `      STR      r0,[r4,#0]
        0x00000b3c:    bd10        ..      POP      {r4,pc}
        0x00000b3e:    bf00        ..      NOP      
    switchToXTAL
        0x00000b40:    b5b0        ..      PUSH     {r4,r5,r7,lr}
        0x00000b42:    4604        .F      MOV      r4,r0
        0x00000b44:    f7ffff84    ....    BL       switchTo20MHz ; 0xa50
        0x00000b48:    2500        .%      MOVS     r5,#0
        0x00000b4a:    f2c4050a    ....    MOVT     r5,#0x400a
        0x00000b4e:    4628        (F      MOV      r0,r5
        0x00000b50:    2103        .!      MOVS     r1,#3
        0x00000b52:    220f        ."      MOVS     r2,#0xf
        0x00000b54:    2300        .#      MOVS     r3,#0
        0x00000b56:    f7fffb3b    ..;.    BL       PORT_Init ; 0x1d0
        0x00000b5a:    4628        (F      MOV      r0,r5
        0x00000b5c:    2104        .!      MOVS     r1,#4
        0x00000b5e:    220f        ."      MOVS     r2,#0xf
        0x00000b60:    2300        .#      MOVS     r3,#0
        0x00000b62:    f7fffb35    ..5.    BL       PORT_Init ; 0x1d0
        0x00000b66:    f24a0020    J. .    MOV      r0,#0xa020
        0x00000b6a:    f2c4000a    ....    MOVT     r0,#0x400a
        0x00000b6e:    6801        .h      LDR      r1,[r0,#0]
        0x00000b70:    f4412170    A.p!    ORR      r1,r1,#0xf0000
        0x00000b74:    f0410102    A...    ORR      r1,r1,#2
        0x00000b78:    6001        .`      STR      r1,[r0,#0]
        0x00000b7a:    f7ffff79    ..y.    BL       delay_3ms ; 0xa70
        0x00000b7e:    f7ffff77    ..w.    BL       delay_3ms ; 0xa70
        0x00000b82:    2004        .       MOVS     r0,#4
        0x00000b84:    f2c40000    ....    MOVT     r0,#0x4000
        0x00000b88:    2101        .!      MOVS     r1,#1
        0x00000b8a:    6001        .`      STR      r1,[r0,#0]
        0x00000b8c:    f04f4080    O..@    MOV      r0,#0x40000000
        0x00000b90:    6801        .h      LDR      r1,[r0,#0]
        0x00000b92:    2c00        .,      CMP      r4,#0
        0x00000b94:    f021011c    !...    BIC      r1,r1,#0x1c
        0x00000b98:    6001        .`      STR      r1,[r0,#0]
        0x00000b9a:    6801        .h      LDR      r1,[r0,#0]
        0x00000b9c:    f041010c    A...    ORR      r1,r1,#0xc
        0x00000ba0:    6001        .`      STR      r1,[r0,#0]
        0x00000ba2:    6801        .h      LDR      r1,[r0,#0]
        0x00000ba4:    f0210102    !...    BIC      r1,r1,#2
        0x00000ba8:    bf18        ..      IT       NE
        0x00000baa:    3102        .1      ADDNE    r1,#2
        0x00000bac:    6001        .`      STR      r1,[r0,#0]
        0x00000bae:    6801        .h      LDR      r1,[r0,#0]
        0x00000bb0:    f0210101    !...    BIC      r1,r1,#1
        0x00000bb4:    6001        .`      STR      r1,[r0,#0]
        0x00000bb6:    bdb0        ..      POP      {r4,r5,r7,pc}
    PLLInit
        0x00000bb8:    b5b0        ..      PUSH     {r4,r5,r7,lr}
        0x00000bba:    2400        .$      MOVS     r4,#0
        0x00000bbc:    f2c4040a    ....    MOVT     r4,#0x400a
        0x00000bc0:    f24a0540    J.@.    MOV      r5,#0xa040
        0x00000bc4:    4620         F      MOV      r0,r4
        0x00000bc6:    2103        .!      MOVS     r1,#3
        0x00000bc8:    220f        ."      MOVS     r2,#0xf
        0x00000bca:    2300        .#      MOVS     r3,#0
        0x00000bcc:    f2c4050a    ....    MOVT     r5,#0x400a
        0x00000bd0:    f7fffafe    ....    BL       PORT_Init ; 0x1d0
        0x00000bd4:    4620         F      MOV      r0,r4
        0x00000bd6:    2104        .!      MOVS     r1,#4
        0x00000bd8:    220f        ."      MOVS     r2,#0xf
        0x00000bda:    2300        .#      MOVS     r3,#0
        0x00000bdc:    f7fffaf8    ....    BL       PORT_Init ; 0x1d0
        0x00000be0:    f8550c20    U. .    LDR      r0,[r5,#-0x20]
        0x00000be4:    f44010f8    @...    ORR      r0,r0,#0x1f0000
        0x00000be8:    f0400002    @...    ORR      r0,r0,#2
        0x00000bec:    f8450c20    E. .    STR      r0,[r5,#-0x20]
        0x00000bf0:    f7ffff3e    ..>.    BL       delay_3ms ; 0xa70
        0x00000bf4:    f7ffff3c    ..<.    BL       delay_3ms ; 0xa70
        0x00000bf8:    6828        (h      LDR      r0,[r5,#0]
        0x00000bfa:    f64f6100    O..a    MOVW     r1,#0xfe00
        0x00000bfe:    f0200002     ...    BIC      r0,r0,#2
        0x00000c02:    6028        (`      STR      r0,[r5,#0]
        0x00000c04:    6868        hh      LDR      r0,[r5,#4]
        0x00000c06:    f6cf41e0    ...A    MOVT     r1,#0xfce0
        0x00000c0a:    4008        .@      ANDS     r0,r0,r1
        0x00000c0c:    6068        h`      STR      r0,[r5,#4]
        0x00000c0e:    6868        hh      LDR      r0,[r5,#4]
        0x00000c10:    f4403040    @.@0    ORR      r0,r0,#0x30000
        0x00000c14:    f040003c    @.<.    ORR      r0,r0,#0x3c
        0x00000c18:    6068        h`      STR      r0,[r5,#4]
        0x00000c1a:    6828        (h      LDR      r0,[r5,#0]
        0x00000c1c:    f0200004     ...    BIC      r0,r0,#4
        0x00000c20:    6028        (`      STR      r0,[r5,#0]
        0x00000c22:    bf00        ..      NOP      
        0x00000c24:    68e8        .h      LDR      r0,[r5,#0xc]
        0x00000c26:    2800        .(      CMP      r0,#0
        0x00000c28:    d0fc        ..      BEQ      0xc24 ; PLLInit + 108
        0x00000c2a:    6828        (h      LDR      r0,[r5,#0]
        0x00000c2c:    f0400001    @...    ORR      r0,r0,#1
        0x00000c30:    6028        (`      STR      r0,[r5,#0]
        0x00000c32:    bdb0        ..      POP      {r4,r5,r7,pc}
    switchTo32KHz
        0x00000c34:    b510        ..      PUSH     {r4,lr}
        0x00000c36:    f7ffff0b    ....    BL       switchTo20MHz ; 0xa50
        0x00000c3a:    f24a0050    J.P.    MOV      r0,#0xa050
        0x00000c3e:    f2c4000a    ....    MOVT     r0,#0x400a
        0x00000c42:    2101        .!      MOVS     r1,#1
        0x00000c44:    6001        .`      STR      r1,[r0,#0]
        0x00000c46:    2004        .       MOVS     r0,#4
        0x00000c48:    f2c40000    ....    MOVT     r0,#0x4000
        0x00000c4c:    6001        .`      STR      r1,[r0,#0]
        0x00000c4e:    f04f4480    O..D    MOV      r4,#0x40000000
        0x00000c52:    6820         h      LDR      r0,[r4,#0]
        0x00000c54:    f020001c     ...    BIC      r0,r0,#0x1c
        0x00000c58:    6020         `      STR      r0,[r4,#0]
        0x00000c5a:    6820         h      LDR      r0,[r4,#0]
        0x00000c5c:    6020         `      STR      r0,[r4,#0]
        0x00000c5e:    6820         h      LDR      r0,[r4,#0]
        0x00000c60:    f0200002     ...    BIC      r0,r0,#2
        0x00000c64:    6020         `      STR      r0,[r4,#0]
        0x00000c66:    f7ffff03    ....    BL       delay_3ms ; 0xa70
        0x00000c6a:    6820         h      LDR      r0,[r4,#0]
        0x00000c6c:    f0200001     ...    BIC      r0,r0,#1
        0x00000c70:    6020         `      STR      r0,[r4,#0]
        0x00000c72:    bd10        ..      POP      {r4,pc}
    switchToXTAL_32K
        0x00000c74:    b510        ..      PUSH     {r4,lr}
        0x00000c76:    f7fffeeb    ....    BL       switchTo20MHz ; 0xa50
        0x00000c7a:    f24a0020    J. .    MOV      r0,#0xa020
        0x00000c7e:    f2c4000a    ....    MOVT     r0,#0x400a
        0x00000c82:    6801        .h      LDR      r1,[r0,#0]
        0x00000c84:    f2407201    @..r    MOV      r2,#0x701
        0x00000c88:    4311        .C      ORRS     r1,r1,r2
        0x00000c8a:    6001        .`      STR      r1,[r0,#0]
        0x00000c8c:    f44f707a    O.zp    MOV      r0,#0x3e8
        0x00000c90:    3801        .8      SUBS     r0,#1
        0x00000c92:    bf00        ..      NOP      
        0x00000c94:    d1fc        ..      BNE      0xc90 ; switchToXTAL_32K + 28
        0x00000c96:    2004        .       MOVS     r0,#4
        0x00000c98:    f2c40000    ....    MOVT     r0,#0x4000
        0x00000c9c:    2101        .!      MOVS     r1,#1
        0x00000c9e:    6001        .`      STR      r1,[r0,#0]
        0x00000ca0:    f04f4480    O..D    MOV      r4,#0x40000000
        0x00000ca4:    6820         h      LDR      r0,[r4,#0]
        0x00000ca6:    f020001c     ...    BIC      r0,r0,#0x1c
        0x00000caa:    6020         `      STR      r0,[r4,#0]
        0x00000cac:    6820         h      LDR      r0,[r4,#0]
        0x00000cae:    f0400008    @...    ORR      r0,r0,#8
        0x00000cb2:    6020         `      STR      r0,[r4,#0]
        0x00000cb4:    6820         h      LDR      r0,[r4,#0]
        0x00000cb6:    f0200002     ...    BIC      r0,r0,#2
        0x00000cba:    6020         `      STR      r0,[r4,#0]
        0x00000cbc:    f7fffed8    ....    BL       delay_3ms ; 0xa70
        0x00000cc0:    6820         h      LDR      r0,[r4,#0]
        0x00000cc2:    f0200001     ...    BIC      r0,r0,#1
        0x00000cc6:    6020         `      STR      r0,[r4,#0]
        0x00000cc8:    bd10        ..      POP      {r4,pc}
        0x00000cca:    0000        ..      MOVS     r0,r0
    $d.realdata
    IAP_Cache_Reset
        0x00000ccc:    11000401    ....    DCD    285213697
    IAP_Flash_Erase
        0x00000cd0:    11000471    q...    DCD    285213809
    IAP_Flash_Param
        0x00000cd4:    11000431    1...    DCD    285213745
    IAP_Flash_Write
        0x00000cd8:    110004c1    ....    DCD    285213889

** Section #2 'PrgData' (SHT_PROGBITS) [SHF_ALLOC + SHF_WRITE]
    Size   : 12 bytes (alignment 4)
    Address: 0x00000cdc


** Section #3 'DevDscr' (SHT_PROGBITS) [SHF_ALLOC + SHF_EXECINSTR]
    Size   : 4256 bytes (alignment 4)
    Address: 0x00000ce8

    $d.realdata
    FlashDevice
        0x00000ce8:    57530101    ..SW    DCD    1465057537
        0x00000cec:    3134334d    M341    DCD    825504589
        0x00000cf0:    43465320     SFC    DCD    1128682272
        0x00000cf4:    00000000    ....    DCD    0
        0x00000cf8:    00000000    ....    DCD    0
        0x00000cfc:    00000000    ....    DCD    0
        0x00000d00:    00000000    ....    DCD    0
        0x00000d04:    00000000    ....    DCD    0
        0x00000d08:    00000000    ....    DCD    0
        0x00000d0c:    00000000    ....    DCD    0
        0x00000d10:    00000000    ....    DCD    0
        0x00000d14:    00000000    ....    DCD    0
        0x00000d18:    00000000    ....    DCD    0
        0x00000d1c:    00000000    ....    DCD    0
        0x00000d20:    00000000    ....    DCD    0
        0x00000d24:    00000000    ....    DCD    0
        0x00000d28:    00000000    ....    DCD    0
        0x00000d2c:    00000000    ....    DCD    0
        0x00000d30:    00000000    ....    DCD    0
        0x00000d34:    00000000    ....    DCD    0
        0x00000d38:    00000000    ....    DCD    0
        0x00000d3c:    00000000    ....    DCD    0
        0x00000d40:    00000000    ....    DCD    0
        0x00000d44:    00000000    ....    DCD    0
        0x00000d48:    00000000    ....    DCD    0
        0x00000d4c:    00000000    ....    DCD    0
        0x00000d50:    00000000    ....    DCD    0
        0x00000d54:    00000000    ....    DCD    0
        0x00000d58:    00000000    ....    DCD    0
        0x00000d5c:    00000000    ....    DCD    0
        0x00000d60:    00000000    ....    DCD    0
        0x00000d64:    00000000    ....    DCD    0
        0x00000d68:    00010000    ....    DCD    65536
        0x00000d6c:    70000000    ...p    DCD    1879048192
        0x00000d70:    01000000    ....    DCD    16777216
        0x00000d74:    00000100    ....    DCD    256
        0x00000d78:    00000000    ....    DCD    0
        0x00000d7c:    000000ff    ....    DCD    255
        0x00000d80:    000003e8    ....    DCD    1000
        0x00000d84:    000007d0    ....    DCD    2000
        0x00000d88:    00001000    ....    DCD    4096
        0x00000d8c:    00000000    ....    DCD    0
        0x00000d90:    ffffffff    ....    DCD    4294967295
        0x00000d94:    ffffffff    ....    DCD    4294967295
        0x00000d98:    00000000    ....    DCD    0
        0x00000d9c:    00000000    ....    DCD    0
        0x00000da0:    00000000    ....    DCD    0
        0x00000da4:    00000000    ....    DCD    0
        0x00000da8:    00000000    ....    DCD    0
        0x00000dac:    00000000    ....    DCD    0
        0x00000db0:    00000000    ....    DCD    0
        0x00000db4:    00000000    ....    DCD    0
        0x00000db8:    00000000    ....    DCD    0
        0x00000dbc:    00000000    ....    DCD    0
        0x00000dc0:    00000000    ....    DCD    0
        0x00000dc4:    00000000    ....    DCD    0
        0x00000dc8:    00000000    ....    DCD    0
        0x00000dcc:    00000000    ....    DCD    0
        0x00000dd0:    00000000    ....    DCD    0
        0x00000dd4:    00000000    ....    DCD    0
        0x00000dd8:    00000000    ....    DCD    0
        0x00000ddc:    00000000    ....    DCD    0
        0x00000de0:    00000000    ....    DCD    0
        0x00000de4:    00000000    ....    DCD    0
        0x00000de8:    00000000    ....    DCD    0
        0x00000dec:    00000000    ....    DCD    0
        0x00000df0:    00000000    ....    DCD    0
        0x00000df4:    00000000    ....    DCD    0
        0x00000df8:    00000000    ....    DCD    0
        0x00000dfc:    00000000    ....    DCD    0
        0x00000e00:    00000000    ....    DCD    0
        0x00000e04:    00000000    ....    DCD    0
        0x00000e08:    00000000    ....    DCD    0
        0x00000e0c:    00000000    ....    DCD    0
        0x00000e10:    00000000    ....    DCD    0
        0x00000e14:    00000000    ....    DCD    0
        0x00000e18:    00000000    ....    DCD    0
        0x00000e1c:    00000000    ....    DCD    0
        0x00000e20:    00000000    ....    DCD    0
        0x00000e24:    00000000    ....    DCD    0
        0x00000e28:    00000000    ....    DCD    0
        0x00000e2c:    00000000    ....    DCD    0
        0x00000e30:    00000000    ....    DCD    0
        0x00000e34:    00000000    ....    DCD    0
        0x00000e38:    00000000    ....    DCD    0
        0x00000e3c:    00000000    ....    DCD    0
        0x00000e40:    00000000    ....    DCD    0
        0x00000e44:    00000000    ....    DCD    0
        0x00000e48:    00000000    ....    DCD    0
        0x00000e4c:    00000000    ....    DCD    0
        0x00000e50:    00000000    ....    DCD    0
        0x00000e54:    00000000    ....    DCD    0
        0x00000e58:    00000000    ....    DCD    0
        0x00000e5c:    00000000    ....    DCD    0
        0x00000e60:    00000000    ....    DCD    0
        0x00000e64:    00000000    ....    DCD    0
        0x00000e68:    00000000    ....    DCD    0
        0x00000e6c:    00000000    ....    DCD    0
        0x00000e70:    00000000    ....    DCD    0
        0x00000e74:    00000000    ....    DCD    0
        0x00000e78:    00000000    ....    DCD    0
        0x00000e7c:    00000000    ....    DCD    0
        0x00000e80:    00000000    ....    DCD    0
        0x00000e84:    00000000    ....    DCD    0
        0x00000e88:    00000000    ....    DCD    0
        0x00000e8c:    00000000    ....    DCD    0
        0x00000e90:    00000000    ....    DCD    0
        0x00000e94:    00000000    ....    DCD    0
        0x00000e98:    00000000    ....    DCD    0
        0x00000e9c:    00000000    ....    DCD    0
        0x00000ea0:    00000000    ....    DCD    0
        0x00000ea4:    00000000    ....    DCD    0
        0x00000ea8:    00000000    ....    DCD    0
        0x00000eac:    00000000    ....    DCD    0
        0x00000eb0:    00000000    ....    DCD    0
        0x00000eb4:    00000000    ....    DCD    0
        0x00000eb8:    00000000    ....    DCD    0
        0x00000ebc:    00000000    ....    DCD    0
        0x00000ec0:    00000000    ....    DCD    0
        0x00000ec4:    00000000    ....    DCD    0
        0x00000ec8:    00000000    ....    DCD    0
        0x00000ecc:    00000000    ....    DCD    0
        0x00000ed0:    00000000    ....    DCD    0
        0x00000ed4:    00000000    ....    DCD    0
        0x00000ed8:    00000000    ....    DCD    0
        0x00000edc:    00000000    ....    DCD    0
        0x00000ee0:    00000000    ....    DCD    0
        0x00000ee4:    00000000    ....    DCD    0
        0x00000ee8:    00000000    ....    DCD    0
        0x00000eec:    00000000    ....    DCD    0
        0x00000ef0:    00000000    ....    DCD    0
        0x00000ef4:    00000000    ....    DCD    0
        0x00000ef8:    00000000    ....    DCD    0
        0x00000efc:    00000000    ....    DCD    0
        0x00000f00:    00000000    ....    DCD    0
        0x00000f04:    00000000    ....    DCD    0
        0x00000f08:    00000000    ....    DCD    0
        0x00000f0c:    00000000    ....    DCD    0
        0x00000f10:    00000000    ....    DCD    0
        0x00000f14:    00000000    ....    DCD    0
        0x00000f18:    00000000    ....    DCD    0
        0x00000f1c:    00000000    ....    DCD    0
        0x00000f20:    00000000    ....    DCD    0
        0x00000f24:    00000000    ....    DCD    0
        0x00000f28:    00000000    ....    DCD    0
        0x00000f2c:    00000000    ....    DCD    0
        0x00000f30:    00000000    ....    DCD    0
        0x00000f34:    00000000    ....    DCD    0
        0x00000f38:    00000000    ....    DCD    0
        0x00000f3c:    00000000    ....    DCD    0
        0x00000f40:    00000000    ....    DCD    0
        0x00000f44:    00000000    ....    DCD    0
        0x00000f48:    00000000    ....    DCD    0
        0x00000f4c:    00000000    ....    DCD    0
        0x00000f50:    00000000    ....    DCD    0
        0x00000f54:    00000000    ....    DCD    0
        0x00000f58:    00000000    ....    DCD    0
        0x00000f5c:    00000000    ....    DCD    0
        0x00000f60:    00000000    ....    DCD    0
        0x00000f64:    00000000    ....    DCD    0
        0x00000f68:    00000000    ....    DCD    0
        0x00000f6c:    00000000    ....    DCD    0
        0x00000f70:    00000000    ....    DCD    0
        0x00000f74:    00000000    ....    DCD    0
        0x00000f78:    00000000    ....    DCD    0
        0x00000f7c:    00000000    ....    DCD    0
        0x00000f80:    00000000    ....    DCD    0
        0x00000f84:    00000000    ....    DCD    0
        0x00000f88:    00000000    ....    DCD    0
        0x00000f8c:    00000000    ....    DCD    0
        0x00000f90:    00000000    ....    DCD    0
        0x00000f94:    00000000    ....    DCD    0
        0x00000f98:    00000000    ....    DCD    0
        0x00000f9c:    00000000    ....    DCD    0
        0x00000fa0:    00000000    ....    DCD    0
        0x00000fa4:    00000000    ....    DCD    0
        0x00000fa8:    00000000    ....    DCD    0
        0x00000fac:    00000000    ....    DCD    0
        0x00000fb0:    00000000    ....    DCD    0
        0x00000fb4:    00000000    ....    DCD    0
        0x00000fb8:    00000000    ....    DCD    0
        0x00000fbc:    00000000    ....    DCD    0
        0x00000fc0:    00000000    ....    DCD    0
        0x00000fc4:    00000000    ....    DCD    0
        0x00000fc8:    00000000    ....    DCD    0
        0x00000fcc:    00000000    ....    DCD    0
        0x00000fd0:    00000000    ....    DCD    0
        0x00000fd4:    00000000    ....    DCD    0
        0x00000fd8:    00000000    ....    DCD    0
        0x00000fdc:    00000000    ....    DCD    0
        0x00000fe0:    00000000    ....    DCD    0
        0x00000fe4:    00000000    ....    DCD    0
        0x00000fe8:    00000000    ....    DCD    0
        0x00000fec:    00000000    ....    DCD    0
        0x00000ff0:    00000000    ....    DCD    0
        0x00000ff4:    00000000    ....    DCD    0
        0x00000ff8:    00000000    ....    DCD    0
        0x00000ffc:    00000000    ....    DCD    0
        0x00001000:    00000000    ....    DCD    0
        0x00001004:    00000000    ....    DCD    0
        0x00001008:    00000000    ....    DCD    0
        0x0000100c:    00000000    ....    DCD    0
        0x00001010:    00000000    ....    DCD    0
        0x00001014:    00000000    ....    DCD    0
        0x00001018:    00000000    ....    DCD    0
        0x0000101c:    00000000    ....    DCD    0
        0x00001020:    00000000    ....    DCD    0
        0x00001024:    00000000    ....    DCD    0
        0x00001028:    00000000    ....    DCD    0
        0x0000102c:    00000000    ....    DCD    0
        0x00001030:    00000000    ....    DCD    0
        0x00001034:    00000000    ....    DCD    0
        0x00001038:    00000000    ....    DCD    0
        0x0000103c:    00000000    ....    DCD    0
        0x00001040:    00000000    ....    DCD    0
        0x00001044:    00000000    ....    DCD    0
        0x00001048:    00000000    ....    DCD    0
        0x0000104c:    00000000    ....    DCD    0
        0x00001050:    00000000    ....    DCD    0
        0x00001054:    00000000    ....    DCD    0
        0x00001058:    00000000    ....    DCD    0
        0x0000105c:    00000000    ....    DCD    0
        0x00001060:    00000000    ....    DCD    0
        0x00001064:    00000000    ....    DCD    0
        0x00001068:    00000000    ....    DCD    0
        0x0000106c:    00000000    ....    DCD    0
        0x00001070:    00000000    ....    DCD    0
        0x00001074:    00000000    ....    DCD    0
        0x00001078:    00000000    ....    DCD    0
        0x0000107c:    00000000    ....    DCD    0
        0x00001080:    00000000    ....    DCD    0
        0x00001084:    00000000    ....    DCD    0
        0x00001088:    00000000    ....    DCD    0
        0x0000108c:    00000000    ....    DCD    0
        0x00001090:    00000000    ....    DCD    0
        0x00001094:    00000000    ....    DCD    0
        0x00001098:    00000000    ....    DCD    0
        0x0000109c:    00000000    ....    DCD    0
        0x000010a0:    00000000    ....    DCD    0
        0x000010a4:    00000000    ....    DCD    0
        0x000010a8:    00000000    ....    DCD    0
        0x000010ac:    00000000    ....    DCD    0
        0x000010b0:    00000000    ....    DCD    0
        0x000010b4:    00000000    ....    DCD    0
        0x000010b8:    00000000    ....    DCD    0
        0x000010bc:    00000000    ....    DCD    0
        0x000010c0:    00000000    ....    DCD    0
        0x000010c4:    00000000    ....    DCD    0
        0x000010c8:    00000000    ....    DCD    0
        0x000010cc:    00000000    ....    DCD    0
        0x000010d0:    00000000    ....    DCD    0
        0x000010d4:    00000000    ....    DCD    0
        0x000010d8:    00000000    ....    DCD    0
        0x000010dc:    00000000    ....    DCD    0
        0x000010e0:    00000000    ....    DCD    0
        0x000010e4:    00000000    ....    DCD    0
        0x000010e8:    00000000    ....    DCD    0
        0x000010ec:    00000000    ....    DCD    0
        0x000010f0:    00000000    ....    DCD    0
        0x000010f4:    00000000    ....    DCD    0
        0x000010f8:    00000000    ....    DCD    0
        0x000010fc:    00000000    ....    DCD    0
        0x00001100:    00000000    ....    DCD    0
        0x00001104:    00000000    ....    DCD    0
        0x00001108:    00000000    ....    DCD    0
        0x0000110c:    00000000    ....    DCD    0
        0x00001110:    00000000    ....    DCD    0
        0x00001114:    00000000    ....    DCD    0
        0x00001118:    00000000    ....    DCD    0
        0x0000111c:    00000000    ....    DCD    0
        0x00001120:    00000000    ....    DCD    0
        0x00001124:    00000000    ....    DCD    0
        0x00001128:    00000000    ....    DCD    0
        0x0000112c:    00000000    ....    DCD    0
        0x00001130:    00000000    ....    DCD    0
        0x00001134:    00000000    ....    DCD    0
        0x00001138:    00000000    ....    DCD    0
        0x0000113c:    00000000    ....    DCD    0
        0x00001140:    00000000    ....    DCD    0
        0x00001144:    00000000    ....    DCD    0
        0x00001148:    00000000    ....    DCD    0
        0x0000114c:    00000000    ....    DCD    0
        0x00001150:    00000000    ....    DCD    0
        0x00001154:    00000000    ....    DCD    0
        0x00001158:    00000000    ....    DCD    0
        0x0000115c:    00000000    ....    DCD    0
        0x00001160:    00000000    ....    DCD    0
        0x00001164:    00000000    ....    DCD    0
        0x00001168:    00000000    ....    DCD    0
        0x0000116c:    00000000    ....    DCD    0
        0x00001170:    00000000    ....    DCD    0
        0x00001174:    00000000    ....    DCD    0
        0x00001178:    00000000    ....    DCD    0
        0x0000117c:    00000000    ....    DCD    0
        0x00001180:    00000000    ....    DCD    0
        0x00001184:    00000000    ....    DCD    0
        0x00001188:    00000000    ....    DCD    0
        0x0000118c:    00000000    ....    DCD    0
        0x00001190:    00000000    ....    DCD    0
        0x00001194:    00000000    ....    DCD    0
        0x00001198:    00000000    ....    DCD    0
        0x0000119c:    00000000    ....    DCD    0
        0x000011a0:    00000000    ....    DCD    0
        0x000011a4:    00000000    ....    DCD    0
        0x000011a8:    00000000    ....    DCD    0
        0x000011ac:    00000000    ....    DCD    0
        0x000011b0:    00000000    ....    DCD    0
        0x000011b4:    00000000    ....    DCD    0
        0x000011b8:    00000000    ....    DCD    0
        0x000011bc:    00000000    ....    DCD    0
        0x000011c0:    00000000    ....    DCD    0
        0x000011c4:    00000000    ....    DCD    0
        0x000011c8:    00000000    ....    DCD    0
        0x000011cc:    00000000    ....    DCD    0
        0x000011d0:    00000000    ....    DCD    0
        0x000011d4:    00000000    ....    DCD    0
        0x000011d8:    00000000    ....    DCD    0
        0x000011dc:    00000000    ....    DCD    0
        0x000011e0:    00000000    ....    DCD    0
        0x000011e4:    00000000    ....    DCD    0
        0x000011e8:    00000000    ....    DCD    0
        0x000011ec:    00000000    ....    DCD    0
        0x000011f0:    00000000    ....    DCD    0
        0x000011f4:    00000000    ....    DCD    0
        0x000011f8:    00000000    ....    DCD    0
        0x000011fc:    00000000    ....    DCD    0
        0x00001200:    00000000    ....    DCD    0
        0x00001204:    00000000    ....    DCD    0
        0x00001208:    00000000    ....    DCD    0
        0x0000120c:    00000000    ....    DCD    0
        0x00001210:    00000000    ....    DCD    0
        0x00001214:    00000000    ....    DCD    0
        0x00001218:    00000000    ....    DCD    0
        0x0000121c:    00000000    ....    DCD    0
        0x00001220:    00000000    ....    DCD    0
        0x00001224:    00000000    ....    DCD    0
        0x00001228:    00000000    ....    DCD    0
        0x0000122c:    00000000    ....    DCD    0
        0x00001230:    00000000    ....    DCD    0
        0x00001234:    00000000    ....    DCD    0
        0x00001238:    00000000    ....    DCD    0
        0x0000123c:    00000000    ....    DCD    0
        0x00001240:    00000000    ....    DCD    0
        0x00001244:    00000000    ....    DCD    0
        0x00001248:    00000000    ....    DCD    0
        0x0000124c:    00000000    ....    DCD    0
        0x00001250:    00000000    ....    DCD    0
        0x00001254:    00000000    ....    DCD    0
        0x00001258:    00000000    ....    DCD    0
        0x0000125c:    00000000    ....    DCD    0
        0x00001260:    00000000    ....    DCD    0
        0x00001264:    00000000    ....    DCD    0
        0x00001268:    00000000    ....    DCD    0
        0x0000126c:    00000000    ....    DCD    0
        0x00001270:    00000000    ....    DCD    0
        0x00001274:    00000000    ....    DCD    0
        0x00001278:    00000000    ....    DCD    0
        0x0000127c:    00000000    ....    DCD    0
        0x00001280:    00000000    ....    DCD    0
        0x00001284:    00000000    ....    DCD    0
        0x00001288:    00000000    ....    DCD    0
        0x0000128c:    00000000    ....    DCD    0
        0x00001290:    00000000    ....    DCD    0
        0x00001294:    00000000    ....    DCD    0
        0x00001298:    00000000    ....    DCD    0
        0x0000129c:    00000000    ....    DCD    0
        0x000012a0:    00000000    ....    DCD    0
        0x000012a4:    00000000    ....    DCD    0
        0x000012a8:    00000000    ....    DCD    0
        0x000012ac:    00000000    ....    DCD    0
        0x000012b0:    00000000    ....    DCD    0
        0x000012b4:    00000000    ....    DCD    0
        0x000012b8:    00000000    ....    DCD    0
        0x000012bc:    00000000    ....    DCD    0
        0x000012c0:    00000000    ....    DCD    0
        0x000012c4:    00000000    ....    DCD    0
        0x000012c8:    00000000    ....    DCD    0
        0x000012cc:    00000000    ....    DCD    0
        0x000012d0:    00000000    ....    DCD    0
        0x000012d4:    00000000    ....    DCD    0
        0x000012d8:    00000000    ....    DCD    0
        0x000012dc:    00000000    ....    DCD    0
        0x000012e0:    00000000    ....    DCD    0
        0x000012e4:    00000000    ....    DCD    0
        0x000012e8:    00000000    ....    DCD    0
        0x000012ec:    00000000    ....    DCD    0
        0x000012f0:    00000000    ....    DCD    0
        0x000012f4:    00000000    ....    DCD    0
        0x000012f8:    00000000    ....    DCD    0
        0x000012fc:    00000000    ....    DCD    0
        0x00001300:    00000000    ....    DCD    0
        0x00001304:    00000000    ....    DCD    0
        0x00001308:    00000000    ....    DCD    0
        0x0000130c:    00000000    ....    DCD    0
        0x00001310:    00000000    ....    DCD    0
        0x00001314:    00000000    ....    DCD    0
        0x00001318:    00000000    ....    DCD    0
        0x0000131c:    00000000    ....    DCD    0
        0x00001320:    00000000    ....    DCD    0
        0x00001324:    00000000    ....    DCD    0
        0x00001328:    00000000    ....    DCD    0
        0x0000132c:    00000000    ....    DCD    0
        0x00001330:    00000000    ....    DCD    0
        0x00001334:    00000000    ....    DCD    0
        0x00001338:    00000000    ....    DCD    0
        0x0000133c:    00000000    ....    DCD    0
        0x00001340:    00000000    ....    DCD    0
        0x00001344:    00000000    ....    DCD    0
        0x00001348:    00000000    ....    DCD    0
        0x0000134c:    00000000    ....    DCD    0
        0x00001350:    00000000    ....    DCD    0
        0x00001354:    00000000    ....    DCD    0
        0x00001358:    00000000    ....    DCD    0
        0x0000135c:    00000000    ....    DCD    0
        0x00001360:    00000000    ....    DCD    0
        0x00001364:    00000000    ....    DCD    0
        0x00001368:    00000000    ....    DCD    0
        0x0000136c:    00000000    ....    DCD    0
        0x00001370:    00000000    ....    DCD    0
        0x00001374:    00000000    ....    DCD    0
        0x00001378:    00000000    ....    DCD    0
        0x0000137c:    00000000    ....    DCD    0
        0x00001380:    00000000    ....    DCD    0
        0x00001384:    00000000    ....    DCD    0
        0x00001388:    00000000    ....    DCD    0
        0x0000138c:    00000000    ....    DCD    0
        0x00001390:    00000000    ....    DCD    0
        0x00001394:    00000000    ....    DCD    0
        0x00001398:    00000000    ....    DCD    0
        0x0000139c:    00000000    ....    DCD    0
        0x000013a0:    00000000    ....    DCD    0
        0x000013a4:    00000000    ....    DCD    0
        0x000013a8:    00000000    ....    DCD    0
        0x000013ac:    00000000    ....    DCD    0
        0x000013b0:    00000000    ....    DCD    0
        0x000013b4:    00000000    ....    DCD    0
        0x000013b8:    00000000    ....    DCD    0
        0x000013bc:    00000000    ....    DCD    0
        0x000013c0:    00000000    ....    DCD    0
        0x000013c4:    00000000    ....    DCD    0
        0x000013c8:    00000000    ....    DCD    0
        0x000013cc:    00000000    ....    DCD    0
        0x000013d0:    00000000    ....    DCD    0
        0x000013d4:    00000000    ....    DCD    0
        0x000013d8:    00000000    ....    DCD    0
        0x000013dc:    00000000    ....    DCD    0
        0x000013e0:    00000000    ....    DCD    0
        0x000013e4:    00000000    ....    DCD    0
        0x000013e8:    00000000    ....    DCD    0
        0x000013ec:    00000000    ....    DCD    0
        0x000013f0:    00000000    ....    DCD    0
        0x000013f4:    00000000    ....    DCD    0
        0x000013f8:    00000000    ....    DCD    0
        0x000013fc:    00000000    ....    DCD    0
        0x00001400:    00000000    ....    DCD    0
        0x00001404:    00000000    ....    DCD    0
        0x00001408:    00000000    ....    DCD    0
        0x0000140c:    00000000    ....    DCD    0
        0x00001410:    00000000    ....    DCD    0
        0x00001414:    00000000    ....    DCD    0
        0x00001418:    00000000    ....    DCD    0
        0x0000141c:    00000000    ....    DCD    0
        0x00001420:    00000000    ....    DCD    0
        0x00001424:    00000000    ....    DCD    0
        0x00001428:    00000000    ....    DCD    0
        0x0000142c:    00000000    ....    DCD    0
        0x00001430:    00000000    ....    DCD    0
        0x00001434:    00000000    ....    DCD    0
        0x00001438:    00000000    ....    DCD    0
        0x0000143c:    00000000    ....    DCD    0
        0x00001440:    00000000    ....    DCD    0
        0x00001444:    00000000    ....    DCD    0
        0x00001448:    00000000    ....    DCD    0
        0x0000144c:    00000000    ....    DCD    0
        0x00001450:    00000000    ....    DCD    0
        0x00001454:    00000000    ....    DCD    0
        0x00001458:    00000000    ....    DCD    0
        0x0000145c:    00000000    ....    DCD    0
        0x00001460:    00000000    ....    DCD    0
        0x00001464:    00000000    ....    DCD    0
        0x00001468:    00000000    ....    DCD    0
        0x0000146c:    00000000    ....    DCD    0
        0x00001470:    00000000    ....    DCD    0
        0x00001474:    00000000    ....    DCD    0
        0x00001478:    00000000    ....    DCD    0
        0x0000147c:    00000000    ....    DCD    0
        0x00001480:    00000000    ....    DCD    0
        0x00001484:    00000000    ....    DCD    0
        0x00001488:    00000000    ....    DCD    0
        0x0000148c:    00000000    ....    DCD    0
        0x00001490:    00000000    ....    DCD    0
        0x00001494:    00000000    ....    DCD    0
        0x00001498:    00000000    ....    DCD    0
        0x0000149c:    00000000    ....    DCD    0
        0x000014a0:    00000000    ....    DCD    0
        0x000014a4:    00000000    ....    DCD    0
        0x000014a8:    00000000    ....    DCD    0
        0x000014ac:    00000000    ....    DCD    0
        0x000014b0:    00000000    ....    DCD    0
        0x000014b4:    00000000    ....    DCD    0
        0x000014b8:    00000000    ....    DCD    0
        0x000014bc:    00000000    ....    DCD    0
        0x000014c0:    00000000    ....    DCD    0
        0x000014c4:    00000000    ....    DCD    0
        0x000014c8:    00000000    ....    DCD    0
        0x000014cc:    00000000    ....    DCD    0
        0x000014d0:    00000000    ....    DCD    0
        0x000014d4:    00000000    ....    DCD    0
        0x000014d8:    00000000    ....    DCD    0
        0x000014dc:    00000000    ....    DCD    0
        0x000014e0:    00000000    ....    DCD    0
        0x000014e4:    00000000    ....    DCD    0
        0x000014e8:    00000000    ....    DCD    0
        0x000014ec:    00000000    ....    DCD    0
        0x000014f0:    00000000    ....    DCD    0
        0x000014f4:    00000000    ....    DCD    0
        0x000014f8:    00000000    ....    DCD    0
        0x000014fc:    00000000    ....    DCD    0
        0x00001500:    00000000    ....    DCD    0
        0x00001504:    00000000    ....    DCD    0
        0x00001508:    00000000    ....    DCD    0
        0x0000150c:    00000000    ....    DCD    0
        0x00001510:    00000000    ....    DCD    0
        0x00001514:    00000000    ....    DCD    0
        0x00001518:    00000000    ....    DCD    0
        0x0000151c:    00000000    ....    DCD    0
        0x00001520:    00000000    ....    DCD    0
        0x00001524:    00000000    ....    DCD    0
        0x00001528:    00000000    ....    DCD    0
        0x0000152c:    00000000    ....    DCD    0
        0x00001530:    00000000    ....    DCD    0
        0x00001534:    00000000    ....    DCD    0
        0x00001538:    00000000    ....    DCD    0
        0x0000153c:    00000000    ....    DCD    0
        0x00001540:    00000000    ....    DCD    0
        0x00001544:    00000000    ....    DCD    0
        0x00001548:    00000000    ....    DCD    0
        0x0000154c:    00000000    ....    DCD    0
        0x00001550:    00000000    ....    DCD    0
        0x00001554:    00000000    ....    DCD    0
        0x00001558:    00000000    ....    DCD    0
        0x0000155c:    00000000    ....    DCD    0
        0x00001560:    00000000    ....    DCD    0
        0x00001564:    00000000    ....    DCD    0
        0x00001568:    00000000    ....    DCD    0
        0x0000156c:    00000000    ....    DCD    0
        0x00001570:    00000000    ....    DCD    0
        0x00001574:    00000000    ....    DCD    0
        0x00001578:    00000000    ....    DCD    0
        0x0000157c:    00000000    ....    DCD    0
        0x00001580:    00000000    ....    DCD    0
        0x00001584:    00000000    ....    DCD    0
        0x00001588:    00000000    ....    DCD    0
        0x0000158c:    00000000    ....    DCD    0
        0x00001590:    00000000    ....    DCD    0
        0x00001594:    00000000    ....    DCD    0
        0x00001598:    00000000    ....    DCD    0
        0x0000159c:    00000000    ....    DCD    0
        0x000015a0:    00000000    ....    DCD    0
        0x000015a4:    00000000    ....    DCD    0
        0x000015a8:    00000000    ....    DCD    0
        0x000015ac:    00000000    ....    DCD    0
        0x000015b0:    00000000    ....    DCD    0
        0x000015b4:    00000000    ....    DCD    0
        0x000015b8:    00000000    ....    DCD    0
        0x000015bc:    00000000    ....    DCD    0
        0x000015c0:    00000000    ....    DCD    0
        0x000015c4:    00000000    ....    DCD    0
        0x000015c8:    00000000    ....    DCD    0
        0x000015cc:    00000000    ....    DCD    0
        0x000015d0:    00000000    ....    DCD    0
        0x000015d4:    00000000    ....    DCD    0
        0x000015d8:    00000000    ....    DCD    0
        0x000015dc:    00000000    ....    DCD    0
        0x000015e0:    00000000    ....    DCD    0
        0x000015e4:    00000000    ....    DCD    0
        0x000015e8:    00000000    ....    DCD    0
        0x000015ec:    00000000    ....    DCD    0
        0x000015f0:    00000000    ....    DCD    0
        0x000015f4:    00000000    ....    DCD    0
        0x000015f8:    00000000    ....    DCD    0
        0x000015fc:    00000000    ....    DCD    0
        0x00001600:    00000000    ....    DCD    0
        0x00001604:    00000000    ....    DCD    0
        0x00001608:    00000000    ....    DCD    0
        0x0000160c:    00000000    ....    DCD    0
        0x00001610:    00000000    ....    DCD    0
        0x00001614:    00000000    ....    DCD    0
        0x00001618:    00000000    ....    DCD    0
        0x0000161c:    00000000    ....    DCD    0
        0x00001620:    00000000    ....    DCD    0
        0x00001624:    00000000    ....    DCD    0
        0x00001628:    00000000    ....    DCD    0
        0x0000162c:    00000000    ....    DCD    0
        0x00001630:    00000000    ....    DCD    0
        0x00001634:    00000000    ....    DCD    0
        0x00001638:    00000000    ....    DCD    0
        0x0000163c:    00000000    ....    DCD    0
        0x00001640:    00000000    ....    DCD    0
        0x00001644:    00000000    ....    DCD    0
        0x00001648:    00000000    ....    DCD    0
        0x0000164c:    00000000    ....    DCD    0
        0x00001650:    00000000    ....    DCD    0
        0x00001654:    00000000    ....    DCD    0
        0x00001658:    00000000    ....    DCD    0
        0x0000165c:    00000000    ....    DCD    0
        0x00001660:    00000000    ....    DCD    0
        0x00001664:    00000000    ....    DCD    0
        0x00001668:    00000000    ....    DCD    0
        0x0000166c:    00000000    ....    DCD    0
        0x00001670:    00000000    ....    DCD    0
        0x00001674:    00000000    ....    DCD    0
        0x00001678:    00000000    ....    DCD    0
        0x0000167c:    00000000    ....    DCD    0
        0x00001680:    00000000    ....    DCD    0
        0x00001684:    00000000    ....    DCD    0
        0x00001688:    00000000    ....    DCD    0
        0x0000168c:    00000000    ....    DCD    0
        0x00001690:    00000000    ....    DCD    0
        0x00001694:    00000000    ....    DCD    0
        0x00001698:    00000000    ....    DCD    0
        0x0000169c:    00000000    ....    DCD    0
        0x000016a0:    00000000    ....    DCD    0
        0x000016a4:    00000000    ....    DCD    0
        0x000016a8:    00000000    ....    DCD    0
        0x000016ac:    00000000    ....    DCD    0
        0x000016b0:    00000000    ....    DCD    0
        0x000016b4:    00000000    ....    DCD    0
        0x000016b8:    00000000    ....    DCD    0
        0x000016bc:    00000000    ....    DCD    0
        0x000016c0:    00000000    ....    DCD    0
        0x000016c4:    00000000    ....    DCD    0
        0x000016c8:    00000000    ....    DCD    0
        0x000016cc:    00000000    ....    DCD    0
        0x000016d0:    00000000    ....    DCD    0
        0x000016d4:    00000000    ....    DCD    0
        0x000016d8:    00000000    ....    DCD    0
        0x000016dc:    00000000    ....    DCD    0
        0x000016e0:    00000000    ....    DCD    0
        0x000016e4:    00000000    ....    DCD    0
        0x000016e8:    00000000    ....    DCD    0
        0x000016ec:    00000000    ....    DCD    0
        0x000016f0:    00000000    ....    DCD    0
        0x000016f4:    00000000    ....    DCD    0
        0x000016f8:    00000000    ....    DCD    0
        0x000016fc:    00000000    ....    DCD    0
        0x00001700:    00000000    ....    DCD    0
        0x00001704:    00000000    ....    DCD    0
        0x00001708:    00000000    ....    DCD    0
        0x0000170c:    00000000    ....    DCD    0
        0x00001710:    00000000    ....    DCD    0
        0x00001714:    00000000    ....    DCD    0
        0x00001718:    00000000    ....    DCD    0
        0x0000171c:    00000000    ....    DCD    0
        0x00001720:    00000000    ....    DCD    0
        0x00001724:    00000000    ....    DCD    0
        0x00001728:    00000000    ....    DCD    0
        0x0000172c:    00000000    ....    DCD    0
        0x00001730:    00000000    ....    DCD    0
        0x00001734:    00000000    ....    DCD    0
        0x00001738:    00000000    ....    DCD    0
        0x0000173c:    00000000    ....    DCD    0
        0x00001740:    00000000    ....    DCD    0
        0x00001744:    00000000    ....    DCD    0
        0x00001748:    00000000    ....    DCD    0
        0x0000174c:    00000000    ....    DCD    0
        0x00001750:    00000000    ....    DCD    0
        0x00001754:    00000000    ....    DCD    0
        0x00001758:    00000000    ....    DCD    0
        0x0000175c:    00000000    ....    DCD    0
        0x00001760:    00000000    ....    DCD    0
        0x00001764:    00000000    ....    DCD    0
        0x00001768:    00000000    ....    DCD    0
        0x0000176c:    00000000    ....    DCD    0
        0x00001770:    00000000    ....    DCD    0
        0x00001774:    00000000    ....    DCD    0
        0x00001778:    00000000    ....    DCD    0
        0x0000177c:    00000000    ....    DCD    0
        0x00001780:    00000000    ....    DCD    0
        0x00001784:    00000000    ....    DCD    0
        0x00001788:    00000000    ....    DCD    0
        0x0000178c:    00000000    ....    DCD    0
        0x00001790:    00000000    ....    DCD    0
        0x00001794:    00000000    ....    DCD    0
        0x00001798:    00000000    ....    DCD    0
        0x0000179c:    00000000    ....    DCD    0
        0x000017a0:    00000000    ....    DCD    0
        0x000017a4:    00000000    ....    DCD    0
        0x000017a8:    00000000    ....    DCD    0
        0x000017ac:    00000000    ....    DCD    0
        0x000017b0:    00000000    ....    DCD    0
        0x000017b4:    00000000    ....    DCD    0
        0x000017b8:    00000000    ....    DCD    0
        0x000017bc:    00000000    ....    DCD    0
        0x000017c0:    00000000    ....    DCD    0
        0x000017c4:    00000000    ....    DCD    0
        0x000017c8:    00000000    ....    DCD    0
        0x000017cc:    00000000    ....    DCD    0
        0x000017d0:    00000000    ....    DCD    0
        0x000017d4:    00000000    ....    DCD    0
        0x000017d8:    00000000    ....    DCD    0
        0x000017dc:    00000000    ....    DCD    0
        0x000017e0:    00000000    ....    DCD    0
        0x000017e4:    00000000    ....    DCD    0
        0x000017e8:    00000000    ....    DCD    0
        0x000017ec:    00000000    ....    DCD    0
        0x000017f0:    00000000    ....    DCD    0
        0x000017f4:    00000000    ....    DCD    0
        0x000017f8:    00000000    ....    DCD    0
        0x000017fc:    00000000    ....    DCD    0
        0x00001800:    00000000    ....    DCD    0
        0x00001804:    00000000    ....    DCD    0
        0x00001808:    00000000    ....    DCD    0
        0x0000180c:    00000000    ....    DCD    0
        0x00001810:    00000000    ....    DCD    0
        0x00001814:    00000000    ....    DCD    0
        0x00001818:    00000000    ....    DCD    0
        0x0000181c:    00000000    ....    DCD    0
        0x00001820:    00000000    ....    DCD    0
        0x00001824:    00000000    ....    DCD    0
        0x00001828:    00000000    ....    DCD    0
        0x0000182c:    00000000    ....    DCD    0
        0x00001830:    00000000    ....    DCD    0
        0x00001834:    00000000    ....    DCD    0
        0x00001838:    00000000    ....    DCD    0
        0x0000183c:    00000000    ....    DCD    0
        0x00001840:    00000000    ....    DCD    0
        0x00001844:    00000000    ....    DCD    0
        0x00001848:    00000000    ....    DCD    0
        0x0000184c:    00000000    ....    DCD    0
        0x00001850:    00000000    ....    DCD    0
        0x00001854:    00000000    ....    DCD    0
        0x00001858:    00000000    ....    DCD    0
        0x0000185c:    00000000    ....    DCD    0
        0x00001860:    00000000    ....    DCD    0
        0x00001864:    00000000    ....    DCD    0
        0x00001868:    00000000    ....    DCD    0
        0x0000186c:    00000000    ....    DCD    0
        0x00001870:    00000000    ....    DCD    0
        0x00001874:    00000000    ....    DCD    0
        0x00001878:    00000000    ....    DCD    0
        0x0000187c:    00000000    ....    DCD    0
        0x00001880:    00000000    ....    DCD    0
        0x00001884:    00000000    ....    DCD    0
        0x00001888:    00000000    ....    DCD    0
        0x0000188c:    00000000    ....    DCD    0
        0x00001890:    00000000    ....    DCD    0
        0x00001894:    00000000    ....    DCD    0
        0x00001898:    00000000    ....    DCD    0
        0x0000189c:    00000000    ....    DCD    0
        0x000018a0:    00000000    ....    DCD    0
        0x000018a4:    00000000    ....    DCD    0
        0x000018a8:    00000000    ....    DCD    0
        0x000018ac:    00000000    ....    DCD    0
        0x000018b0:    00000000    ....    DCD    0
        0x000018b4:    00000000    ....    DCD    0
        0x000018b8:    00000000    ....    DCD    0
        0x000018bc:    00000000    ....    DCD    0
        0x000018c0:    00000000    ....    DCD    0
        0x000018c4:    00000000    ....    DCD    0
        0x000018c8:    00000000    ....    DCD    0
        0x000018cc:    00000000    ....    DCD    0
        0x000018d0:    00000000    ....    DCD    0
        0x000018d4:    00000000    ....    DCD    0
        0x000018d8:    00000000    ....    DCD    0
        0x000018dc:    00000000    ....    DCD    0
        0x000018e0:    00000000    ....    DCD    0
        0x000018e4:    00000000    ....    DCD    0
        0x000018e8:    00000000    ....    DCD    0
        0x000018ec:    00000000    ....    DCD    0
        0x000018f0:    00000000    ....    DCD    0
        0x000018f4:    00000000    ....    DCD    0
        0x000018f8:    00000000    ....    DCD    0
        0x000018fc:    00000000    ....    DCD    0
        0x00001900:    00000000    ....    DCD    0
        0x00001904:    00000000    ....    DCD    0
        0x00001908:    00000000    ....    DCD    0
        0x0000190c:    00000000    ....    DCD    0
        0x00001910:    00000000    ....    DCD    0
        0x00001914:    00000000    ....    DCD    0
        0x00001918:    00000000    ....    DCD    0
        0x0000191c:    00000000    ....    DCD    0
        0x00001920:    00000000    ....    DCD    0
        0x00001924:    00000000    ....    DCD    0
        0x00001928:    00000000    ....    DCD    0
        0x0000192c:    00000000    ....    DCD    0
        0x00001930:    00000000    ....    DCD    0
        0x00001934:    00000000    ....    DCD    0
        0x00001938:    00000000    ....    DCD    0
        0x0000193c:    00000000    ....    DCD    0
        0x00001940:    00000000    ....    DCD    0
        0x00001944:    00000000    ....    DCD    0
        0x00001948:    00000000    ....    DCD    0
        0x0000194c:    00000000    ....    DCD    0
        0x00001950:    00000000    ....    DCD    0
        0x00001954:    00000000    ....    DCD    0
        0x00001958:    00000000    ....    DCD    0
        0x0000195c:    00000000    ....    DCD    0
        0x00001960:    00000000    ....    DCD    0
        0x00001964:    00000000    ....    DCD    0
        0x00001968:    00000000    ....    DCD    0
        0x0000196c:    00000000    ....    DCD    0
        0x00001970:    00000000    ....    DCD    0
        0x00001974:    00000000    ....    DCD    0
        0x00001978:    00000000    ....    DCD    0
        0x0000197c:    00000000    ....    DCD    0
        0x00001980:    00000000    ....    DCD    0
        0x00001984:    00000000    ....    DCD    0
        0x00001988:    00000000    ....    DCD    0
        0x0000198c:    00000000    ....    DCD    0
        0x00001990:    00000000    ....    DCD    0
        0x00001994:    00000000    ....    DCD    0
        0x00001998:    00000000    ....    DCD    0
        0x0000199c:    00000000    ....    DCD    0
        0x000019a0:    00000000    ....    DCD    0
        0x000019a4:    00000000    ....    DCD    0
        0x000019a8:    00000000    ....    DCD    0
        0x000019ac:    00000000    ....    DCD    0
        0x000019b0:    00000000    ....    DCD    0
        0x000019b4:    00000000    ....    DCD    0
        0x000019b8:    00000000    ....    DCD    0
        0x000019bc:    00000000    ....    DCD    0
        0x000019c0:    00000000    ....    DCD    0
        0x000019c4:    00000000    ....    DCD    0
        0x000019c8:    00000000    ....    DCD    0
        0x000019cc:    00000000    ....    DCD    0
        0x000019d0:    00000000    ....    DCD    0
        0x000019d4:    00000000    ....    DCD    0
        0x000019d8:    00000000    ....    DCD    0
        0x000019dc:    00000000    ....    DCD    0
        0x000019e0:    00000000    ....    DCD    0
        0x000019e4:    00000000    ....    DCD    0
        0x000019e8:    00000000    ....    DCD    0
        0x000019ec:    00000000    ....    DCD    0
        0x000019f0:    00000000    ....    DCD    0
        0x000019f4:    00000000    ....    DCD    0
        0x000019f8:    00000000    ....    DCD    0
        0x000019fc:    00000000    ....    DCD    0
        0x00001a00:    00000000    ....    DCD    0
        0x00001a04:    00000000    ....    DCD    0
        0x00001a08:    00000000    ....    DCD    0
        0x00001a0c:    00000000    ....    DCD    0
        0x00001a10:    00000000    ....    DCD    0
        0x00001a14:    00000000    ....    DCD    0
        0x00001a18:    00000000    ....    DCD    0
        0x00001a1c:    00000000    ....    DCD    0
        0x00001a20:    00000000    ....    DCD    0
        0x00001a24:    00000000    ....    DCD    0
        0x00001a28:    00000000    ....    DCD    0
        0x00001a2c:    00000000    ....    DCD    0
        0x00001a30:    00000000    ....    DCD    0
        0x00001a34:    00000000    ....    DCD    0
        0x00001a38:    00000000    ....    DCD    0
        0x00001a3c:    00000000    ....    DCD    0
        0x00001a40:    00000000    ....    DCD    0
        0x00001a44:    00000000    ....    DCD    0
        0x00001a48:    00000000    ....    DCD    0
        0x00001a4c:    00000000    ....    DCD    0
        0x00001a50:    00000000    ....    DCD    0
        0x00001a54:    00000000    ....    DCD    0
        0x00001a58:    00000000    ....    DCD    0
        0x00001a5c:    00000000    ....    DCD    0
        0x00001a60:    00000000    ....    DCD    0
        0x00001a64:    00000000    ....    DCD    0
        0x00001a68:    00000000    ....    DCD    0
        0x00001a6c:    00000000    ....    DCD    0
        0x00001a70:    00000000    ....    DCD    0
        0x00001a74:    00000000    ....    DCD    0
        0x00001a78:    00000000    ....    DCD    0
        0x00001a7c:    00000000    ....    DCD    0
        0x00001a80:    00000000    ....    DCD    0
        0x00001a84:    00000000    ....    DCD    0
        0x00001a88:    00000000    ....    DCD    0
        0x00001a8c:    00000000    ....    DCD    0
        0x00001a90:    00000000    ....    DCD    0
        0x00001a94:    00000000    ....    DCD    0
        0x00001a98:    00000000    ....    DCD    0
        0x00001a9c:    00000000    ....    DCD    0
        0x00001aa0:    00000000    ....    DCD    0
        0x00001aa4:    00000000    ....    DCD    0
        0x00001aa8:    00000000    ....    DCD    0
        0x00001aac:    00000000    ....    DCD    0
        0x00001ab0:    00000000    ....    DCD    0
        0x00001ab4:    00000000    ....    DCD    0
        0x00001ab8:    00000000    ....    DCD    0
        0x00001abc:    00000000    ....    DCD    0
        0x00001ac0:    00000000    ....    DCD    0
        0x00001ac4:    00000000    ....    DCD    0
        0x00001ac8:    00000000    ....    DCD    0
        0x00001acc:    00000000    ....    DCD    0
        0x00001ad0:    00000000    ....    DCD    0
        0x00001ad4:    00000000    ....    DCD    0
        0x00001ad8:    00000000    ....    DCD    0
        0x00001adc:    00000000    ....    DCD    0
        0x00001ae0:    00000000    ....    DCD    0
        0x00001ae4:    00000000    ....    DCD    0
        0x00001ae8:    00000000    ....    DCD    0
        0x00001aec:    00000000    ....    DCD    0
        0x00001af0:    00000000    ....    DCD    0
        0x00001af4:    00000000    ....    DCD    0
        0x00001af8:    00000000    ....    DCD    0
        0x00001afc:    00000000    ....    DCD    0
        0x00001b00:    00000000    ....    DCD    0
        0x00001b04:    00000000    ....    DCD    0
        0x00001b08:    00000000    ....    DCD    0
        0x00001b0c:    00000000    ....    DCD    0
        0x00001b10:    00000000    ....    DCD    0
        0x00001b14:    00000000    ....    DCD    0
        0x00001b18:    00000000    ....    DCD    0
        0x00001b1c:    00000000    ....    DCD    0
        0x00001b20:    00000000    ....    DCD    0
        0x00001b24:    00000000    ....    DCD    0
        0x00001b28:    00000000    ....    DCD    0
        0x00001b2c:    00000000    ....    DCD    0
        0x00001b30:    00000000    ....    DCD    0
        0x00001b34:    00000000    ....    DCD    0
        0x00001b38:    00000000    ....    DCD    0
        0x00001b3c:    00000000    ....    DCD    0
        0x00001b40:    00000000    ....    DCD    0
        0x00001b44:    00000000    ....    DCD    0
        0x00001b48:    00000000    ....    DCD    0
        0x00001b4c:    00000000    ....    DCD    0
        0x00001b50:    00000000    ....    DCD    0
        0x00001b54:    00000000    ....    DCD    0
        0x00001b58:    00000000    ....    DCD    0
        0x00001b5c:    00000000    ....    DCD    0
        0x00001b60:    00000000    ....    DCD    0
        0x00001b64:    00000000    ....    DCD    0
        0x00001b68:    00000000    ....    DCD    0
        0x00001b6c:    00000000    ....    DCD    0
        0x00001b70:    00000000    ....    DCD    0
        0x00001b74:    00000000    ....    DCD    0
        0x00001b78:    00000000    ....    DCD    0
        0x00001b7c:    00000000    ....    DCD    0
        0x00001b80:    00000000    ....    DCD    0
        0x00001b84:    00000000    ....    DCD    0
        0x00001b88:    00000000    ....    DCD    0
        0x00001b8c:    00000000    ....    DCD    0
        0x00001b90:    00000000    ....    DCD    0
        0x00001b94:    00000000    ....    DCD    0
        0x00001b98:    00000000    ....    DCD    0
        0x00001b9c:    00000000    ....    DCD    0
        0x00001ba0:    00000000    ....    DCD    0
        0x00001ba4:    00000000    ....    DCD    0
        0x00001ba8:    00000000    ....    DCD    0
        0x00001bac:    00000000    ....    DCD    0
        0x00001bb0:    00000000    ....    DCD    0
        0x00001bb4:    00000000    ....    DCD    0
        0x00001bb8:    00000000    ....    DCD    0
        0x00001bbc:    00000000    ....    DCD    0
        0x00001bc0:    00000000    ....    DCD    0
        0x00001bc4:    00000000    ....    DCD    0
        0x00001bc8:    00000000    ....    DCD    0
        0x00001bcc:    00000000    ....    DCD    0
        0x00001bd0:    00000000    ....    DCD    0
        0x00001bd4:    00000000    ....    DCD    0
        0x00001bd8:    00000000    ....    DCD    0
        0x00001bdc:    00000000    ....    DCD    0
        0x00001be0:    00000000    ....    DCD    0
        0x00001be4:    00000000    ....    DCD    0
        0x00001be8:    00000000    ....    DCD    0
        0x00001bec:    00000000    ....    DCD    0
        0x00001bf0:    00000000    ....    DCD    0
        0x00001bf4:    00000000    ....    DCD    0
        0x00001bf8:    00000000    ....    DCD    0
        0x00001bfc:    00000000    ....    DCD    0
        0x00001c00:    00000000    ....    DCD    0
        0x00001c04:    00000000    ....    DCD    0
        0x00001c08:    00000000    ....    DCD    0
        0x00001c0c:    00000000    ....    DCD    0
        0x00001c10:    00000000    ....    DCD    0
        0x00001c14:    00000000    ....    DCD    0
        0x00001c18:    00000000    ....    DCD    0
        0x00001c1c:    00000000    ....    DCD    0
        0x00001c20:    00000000    ....    DCD    0
        0x00001c24:    00000000    ....    DCD    0
        0x00001c28:    00000000    ....    DCD    0
        0x00001c2c:    00000000    ....    DCD    0
        0x00001c30:    00000000    ....    DCD    0
        0x00001c34:    00000000    ....    DCD    0
        0x00001c38:    00000000    ....    DCD    0
        0x00001c3c:    00000000    ....    DCD    0
        0x00001c40:    00000000    ....    DCD    0
        0x00001c44:    00000000    ....    DCD    0
        0x00001c48:    00000000    ....    DCD    0
        0x00001c4c:    00000000    ....    DCD    0
        0x00001c50:    00000000    ....    DCD    0
        0x00001c54:    00000000    ....    DCD    0
        0x00001c58:    00000000    ....    DCD    0
        0x00001c5c:    00000000    ....    DCD    0
        0x00001c60:    00000000    ....    DCD    0
        0x00001c64:    00000000    ....    DCD    0
        0x00001c68:    00000000    ....    DCD    0
        0x00001c6c:    00000000    ....    DCD    0
        0x00001c70:    00000000    ....    DCD    0
        0x00001c74:    00000000    ....    DCD    0
        0x00001c78:    00000000    ....    DCD    0
        0x00001c7c:    00000000    ....    DCD    0
        0x00001c80:    00000000    ....    DCD    0
        0x00001c84:    00000000    ....    DCD    0
        0x00001c88:    00000000    ....    DCD    0
        0x00001c8c:    00000000    ....    DCD    0
        0x00001c90:    00000000    ....    DCD    0
        0x00001c94:    00000000    ....    DCD    0
        0x00001c98:    00000000    ....    DCD    0
        0x00001c9c:    00000000    ....    DCD    0
        0x00001ca0:    00000000    ....    DCD    0
        0x00001ca4:    00000000    ....    DCD    0
        0x00001ca8:    00000000    ....    DCD    0
        0x00001cac:    00000000    ....    DCD    0
        0x00001cb0:    00000000    ....    DCD    0
        0x00001cb4:    00000000    ....    DCD    0
        0x00001cb8:    00000000    ....    DCD    0
        0x00001cbc:    00000000    ....    DCD    0
        0x00001cc0:    00000000    ....    DCD    0
        0x00001cc4:    00000000    ....    DCD    0
        0x00001cc8:    00000000    ....    DCD    0
        0x00001ccc:    00000000    ....    DCD    0
        0x00001cd0:    00000000    ....    DCD    0
        0x00001cd4:    00000000    ....    DCD    0
        0x00001cd8:    00000000    ....    DCD    0
        0x00001cdc:    00000000    ....    DCD    0
        0x00001ce0:    00000000    ....    DCD    0
        0x00001ce4:    00000000    ....    DCD    0
        0x00001ce8:    00000000    ....    DCD    0
        0x00001cec:    00000000    ....    DCD    0
        0x00001cf0:    00000000    ....    DCD    0
        0x00001cf4:    00000000    ....    DCD    0
        0x00001cf8:    00000000    ....    DCD    0
        0x00001cfc:    00000000    ....    DCD    0
        0x00001d00:    00000000    ....    DCD    0
        0x00001d04:    00000000    ....    DCD    0
        0x00001d08:    00000000    ....    DCD    0
        0x00001d0c:    00000000    ....    DCD    0
        0x00001d10:    00000000    ....    DCD    0
        0x00001d14:    00000000    ....    DCD    0
        0x00001d18:    00000000    ....    DCD    0
        0x00001d1c:    00000000    ....    DCD    0
        0x00001d20:    00000000    ....    DCD    0
        0x00001d24:    00000000    ....    DCD    0
        0x00001d28:    00000000    ....    DCD    0
        0x00001d2c:    00000000    ....    DCD    0
        0x00001d30:    00000000    ....    DCD    0
        0x00001d34:    00000000    ....    DCD    0
        0x00001d38:    00000000    ....    DCD    0
        0x00001d3c:    00000000    ....    DCD    0
        0x00001d40:    00000000    ....    DCD    0
        0x00001d44:    00000000    ....    DCD    0
        0x00001d48:    00000000    ....    DCD    0
        0x00001d4c:    00000000    ....    DCD    0
        0x00001d50:    00000000    ....    DCD    0
        0x00001d54:    00000000    ....    DCD    0
        0x00001d58:    00000000    ....    DCD    0
        0x00001d5c:    00000000    ....    DCD    0
        0x00001d60:    00000000    ....    DCD    0
        0x00001d64:    00000000    ....    DCD    0
        0x00001d68:    00000000    ....    DCD    0
        0x00001d6c:    00000000    ....    DCD    0
        0x00001d70:    00000000    ....    DCD    0
        0x00001d74:    00000000    ....    DCD    0
        0x00001d78:    00000000    ....    DCD    0
        0x00001d7c:    00000000    ....    DCD    0
        0x00001d80:    00000000    ....    DCD    0
        0x00001d84:    00000000    ....    DCD    0

** Section #4 '.debug_abbrev' (SHT_PROGBITS)
    Size   : 2037 bytes


** Section #5 '.debug_frame' (SHT_PROGBITS)
    Size   : 1012 bytes


** Section #6 '.debug_info' (SHT_PROGBITS)
    Size   : 10109 bytes


** Section #7 '.debug_line' (SHT_PROGBITS)
    Size   : 3805 bytes


** Section #8 '.debug_loc' (SHT_PROGBITS)
    Size   : 2597 bytes


** Section #9 '.debug_str' (SHT_PROGBITS)
    Size   : 5738 bytes


** Section #10 '.debug_ranges' (SHT_PROGBITS)
    Size   : 32 bytes


** Section #11 '.symtab' (SHT_SYMTAB)
    Size   : 1120 bytes (alignment 4)
    String table #12 '.strtab'
    Last local symbol no. 14


** Section #12 '.strtab' (SHT_STRTAB)
    Size   : 1008 bytes


** Section #13 '.note' (SHT_NOTE)
    Size   : 28 bytes (alignment 4)


** Section #14 '.comment' (SHT_PROGBITS)
    Size   : 520 bytes


** Section #15 '.shstrtab' (SHT_STRTAB)
    Size   : 156 bytes


address     size       variable name                            type
0x00000ce0  0x4        CyclesPerUs                              uint32_t

address     size       variable name                            type
0x00000ce4  0x4        SystemCoreClock                          uint32_t

address     size       variable name                            type
0x00000ccc  0x4        IAP_Cache_Reset                          const IAP_Cache_Reset_t

address     size       variable name                            type
0x00000cd0  0x4        IAP_Flash_Erase                          const IAP_Flash_Erase_t

address     size       variable name                            type
0x00000cd4  0x4        IAP_Flash_Param                          const IAP_Flash_Param_t

address     size       variable name                            type
0x00000cd8  0x4        IAP_Flash_Write                          const IAP_Flash_Write_t

address     size       variable name                            type
0x00000ce8  0x10a0     FlashDevice                              const FlashDevice
0x00000ce8  0x2        FlashDevice.Vers                         unsigned short
0x00000cea  0x80       FlashDevice.DevName                      array[128] of char
0x00000d6a  0x2        FlashDevice.DevType                      unsigned short
0x00000d6c  0x4        FlashDevice.DevAdr                       long unsigned int
0x00000d70  0x4        FlashDevice.szDev                        long unsigned int
0x00000d74  0x4        FlashDevice.szPage                       long unsigned int
0x00000d78  0x4        FlashDevice.Res                          long unsigned int
0x00000d7c  0x1      * FlashDevice.valEmpty                     unsigned char
0x00000d80  0x4        FlashDevice.toProg                       long unsigned int
0x00000d84  0x4        FlashDevice.toErase                      long unsigned int
0x00000d88  0x1000     FlashDevice.sectors                      array[512] of FlashSectors

